TN:
SF:/home/Vlad/Documents/VC Code/SecondSemestr/Lab_3/include/array.h
FN:19,21,_ZN5ArrayIiEC2Em
FN:23,25,_ZN5ArrayIiED2Ev
FN:28,33,_ZN5ArrayIiE9push_backERKi
FN:36,45,_ZN5ArrayIiE9insert_atEmRKi
FN:48,56,_ZN5ArrayIiE9remove_atEm
FN:59,64,_ZN5ArrayIiE10replace_atEmRKi
FN:67,72,_ZNK5ArrayIiE6get_atEm
FN:75,77,_ZNK5ArrayIiE4sizeEv
FN:80,92,_ZNK5ArrayIiE17save_to_text_fileERKNSt7__cxx1112basic_stringIcSt11char_traitsIcESaIcEEE
FN:95,106,_ZN5ArrayIiE19load_from_text_fileERKNSt7__cxx1112basic_stringIcSt11char_traitsIcESaIcEEE
FNDA:82670487,_ZN5ArrayIiEC2Em
FNDA:9,_ZN5ArrayIiED2Ev
FNDA:7842433058,_ZN5ArrayIiE9push_backERKi
FNDA:22711390,_ZN5ArrayIiE9insert_atEmRKi
FNDA:22354655,_ZN5ArrayIiE9remove_atEm
FNDA:1,_ZN5ArrayIiE10replace_atEmRKi
FNDA:7,_ZNK5ArrayIiE6get_atEm
FNDA:3,_ZNK5ArrayIiE4sizeEv
FNDA:2,_ZNK5ArrayIiE17save_to_text_fileERKNSt7__cxx1112basic_stringIcSt11char_traitsIcESaIcEEE
FNDA:1,_ZN5ArrayIiE19load_from_text_fileERKNSt7__cxx1112basic_stringIcSt11char_traitsIcESaIcEEE
FNF:10
FNH:10
DA:19,82670487
DA:20,82670487
DA:21,82670487
DA:23,82670487
DA:24,82670487
DA:25,82670487
DA:28,7842433058
DA:29,7842433058
DA:30,1
DA:32,7842433057
DA:33,7842433057
DA:36,22711390
DA:37,22711390
DA:38,1
DA:40,1053268497
DA:41,1030557108
DA:43,22711389
DA:44,22711389
DA:45,22711389
DA:48,22354655
DA:49,22354655
DA:50,1
DA:52,1015059212
DA:53,992704558
DA:55,22354654
DA:56,22354654
DA:59,1
DA:60,1
DA:61,0
DA:63,1
DA:64,1
DA:67,7
DA:68,7
DA:69,0
DA:71,7
DA:75,3
DA:76,3
DA:80,2
DA:81,2
DA:82,2
DA:84,2
DA:85,6
DA:86,4
DA:88,2
DA:90,0
DA:92,2
DA:95,1
DA:96,1
DA:97,1
DA:98,1
DA:99,4
DA:100,3
DA:102,1
DA:104,0
DA:106,1
LF:55
LH:51
end_of_record
TN:
SF:/home/Vlad/Documents/VC Code/SecondSemestr/Lab_3/include/completetree.h
FN:119,158,_ZNK18CompleteBinaryTreeIiE17is_complete_queueEv
FN:165,174,_ZNK18CompleteBinaryTreeIiE9find_nodeEPNS0_4NodeERKi
FN:17,17,_ZN6Queue2IPN18CompleteBinaryTreeIiE4NodeEE4NodeC2ERKS3_
FN:17,17,_ZN6Queue2IiE4NodeC2ERKi
FN:177,182,_ZN18CompleteBinaryTreeIiE5clearEPNS0_4NodeE
FN:185,190,_ZN18CompleteBinaryTreeIiE15load_from_queueER6Queue2IiE
FN:193,193,_ZN18CompleteBinaryTreeIiEC2Ev
FN:195,197,_ZN18CompleteBinaryTreeIiED2Ev
FN:200,209,_ZN18CompleteBinaryTreeIiE3addERKi
FN:212,273,_ZN18CompleteBinaryTreeIiE6removeERKi
FN:25,25,_ZN6Queue2IPN18CompleteBinaryTreeIiE4NodeEEC2Ev
FN:25,25,_ZN6Queue2IiEC2Ev
FN:27,31,_ZN6Queue2IPN18CompleteBinaryTreeIiE4NodeEED2Ev
FN:27,31,_ZN6Queue2IiED2Ev
FN:276,278,_ZNK18CompleteBinaryTreeIiE4findERKi
FN:281,283,_ZNK18CompleteBinaryTreeIiE16is_complete_treeEv
FN:286,301,_ZNK18CompleteBinaryTreeIiE5printEv
FN:305,307,_ZNK18CompleteBinaryTreeIiE8get_sizeEv
FN:310,323,_ZN18CompleteBinaryTreeIiE14load_from_fileERKNSt7__cxx1112basic_stringIcSt11char_traitsIcESaIcEEE
FN:327,345,_ZNK18CompleteBinaryTreeIiE12save_to_fileERKNSt7__cxx1112basic_stringIcSt11char_traitsIcESaIcEEE
FN:34,43,_ZN6Queue2IPN18CompleteBinaryTreeIiE4NodeEE4pushERKS3_
FN:34,43,_ZN6Queue2IiE4pushERKi
FN:46,53,_ZN6Queue2IPN18CompleteBinaryTreeIiE4NodeEE3popEv
FN:46,53,_ZN6Queue2IiE3popEv
FN:56,59,_ZN6Queue2IPN18CompleteBinaryTreeIiE4NodeEE5frontEv
FN:56,59,_ZN6Queue2IiE5frontEv
FN:67,69,_ZNK6Queue2IPN18CompleteBinaryTreeIiE4NodeEE8is_emptyEv
FN:67,69,_ZNK6Queue2IiE8is_emptyEv
FN:72,74,_ZNK6Queue2IiE8get_sizeEv
FN:85,85,_ZN18CompleteBinaryTreeIiE4NodeC2ERKi
FN:92,116,_ZN18CompleteBinaryTreeIiE8add_nodeEPNS0_4NodeE
FNDA:3,_ZNK18CompleteBinaryTreeIiE17is_complete_queueEv
FNDA:1550549455,_ZNK18CompleteBinaryTreeIiE9find_nodeEPNS0_4NodeERKi
FNDA:5052,_ZN6Queue2IPN18CompleteBinaryTreeIiE4NodeEE4NodeC2ERKS3_
FNDA:13,_ZN6Queue2IiE4NodeC2ERKi
FNDA:76119,_ZN18CompleteBinaryTreeIiE5clearEPNS0_4NodeE
FNDA:1,_ZN18CompleteBinaryTreeIiE15load_from_queueER6Queue2IiE
FNDA:13,_ZN18CompleteBinaryTreeIiEC2Ev
FNDA:13,_ZN18CompleteBinaryTreeIiED2Ev
FNDA:47028,_ZN18CompleteBinaryTreeIiE3addERKi
FNDA:9003,_ZN18CompleteBinaryTreeIiE6removeERKi
FNDA:133,_ZN6Queue2IPN18CompleteBinaryTreeIiE4NodeEEC2Ev
FNDA:7,_ZN6Queue2IiEC2Ev
FNDA:133,_ZN6Queue2IPN18CompleteBinaryTreeIiE4NodeEED2Ev
FNDA:7,_ZN6Queue2IiED2Ev
FNDA:13,_ZNK18CompleteBinaryTreeIiE4findERKi
FNDA:3,_ZNK18CompleteBinaryTreeIiE16is_complete_treeEv
FNDA:1,_ZNK18CompleteBinaryTreeIiE5printEv
FNDA:5,_ZNK18CompleteBinaryTreeIiE8get_sizeEv
FNDA:2,_ZN18CompleteBinaryTreeIiE14load_from_fileERKNSt7__cxx1112basic_stringIcSt11char_traitsIcESaIcEEE
FNDA:1,_ZNK18CompleteBinaryTreeIiE12save_to_fileERKNSt7__cxx1112basic_stringIcSt11char_traitsIcESaIcEEE
FNDA:161617530,_ZN6Queue2IPN18CompleteBinaryTreeIiE4NodeEE4pushERKS3_
FNDA:13,_ZN6Queue2IiE4pushERKi
FNDA:161617530,_ZN6Queue2IPN18CompleteBinaryTreeIiE4NodeEE3popEv
FNDA:15,_ZN6Queue2IiE3popEv
FNDA:82845517,_ZN6Queue2IPN18CompleteBinaryTreeIiE4NodeEE5frontEv
FNDA:13,_ZN6Queue2IiE5frontEv
FNDA:12812,_ZNK6Queue2IPN18CompleteBinaryTreeIiE4NodeEE8is_emptyEv
FNDA:42,_ZNK6Queue2IiE8is_emptyEv
FNDA:14,_ZNK6Queue2IiE8get_sizeEv
FNDA:138,_ZN18CompleteBinaryTreeIiE4NodeC2ERKi
FNDA:46962,_ZN18CompleteBinaryTreeIiE8add_nodeEPNS0_4NodeE
FNF:31
FNH:31
DA:17,161617543
DA:25,55949
DA:27,9113
DA:28,78836935
DA:29,78772013
DA:31,46976
DA:34,161617543
DA:35,161617543
DA:36,161617543
DA:37,111823
DA:39,161505720
DA:40,161505720
DA:42,161617543
DA:43,161617543
DA:46,161617545
DA:47,5067
DA:48,161617543
DA:49,161617543
DA:50,161617543
DA:51,161617543
DA:52,161617543
DA:53,161617543
DA:56,82845530
DA:57,2582
DA:58,82845528
DA:67,406145540
DA:68,323293619
DA:72,14
DA:73,14
DA:85,47028
DA:92,46962
DA:93,46962
DA:94,46962
DA:96,78795520
DA:97,78795520
DA:98,78795520
DA:101,78795520
DA:102,23510
DA:103,23510
DA:105,78772010
DA:109,78772010
DA:110,23452
DA:111,23452
DA:113,78748558
DA:116,126
DA:119,3
DA:120,3
DA:122,3
DA:123,3
DA:124,3
DA:126,13
DA:127,11
DA:128,11
DA:131,11
DA:132,0
DA:133,0
DA:137,11
DA:138,6
DA:139,0
DA:141,6
DA:143,5
DA:147,11
DA:148,6
DA:149,1
DA:151,5
DA:153,5
DA:157,2
DA:158,3
DA:165,1550549455
DA:166,2867563853
DA:168,1550549368
DA:170,1452623219
DA:171,1452623219
DA:173,1317014481
DA:177,76119
DA:178,76119
DA:179,38026
DA:180,38026
DA:181,38026
DA:185,1
DA:186,4
DA:187,3
DA:188,3
DA:190,1
DA:193,67
DA:195,67
DA:196,67
DA:197,67
DA:200,47028
DA:201,47028
DA:202,47028
DA:203,66
DA:205,46962
DA:208,47028
DA:209,47028
DA:212,9003
DA:213,9003
DA:214,0
DA:218,9003
DA:219,28
DA:220,28
DA:221,28
DA:222,28
DA:225,8975
DA:226,8975
DA:228,2
DA:229,2
DA:230,2
DA:233,4058953
DA:234,4049978
DA:235,4049978
DA:237,4049978
DA:238,8974
DA:241,4049978
DA:242,2022752
DA:243,2022752
DA:244,2022752
DA:247,4049978
DA:248,2018251
DA:249,2018251
DA:250,2018251
DA:255,8975
DA:256,1
DA:260,8974
DA:261,8974
DA:263,8974
DA:264,4474
DA:265,4474
DA:267,4500
DA:268,4500
DA:272,8974
DA:273,8975
DA:276,97926153
DA:277,97926153
DA:281,3
DA:282,3
DA:286,1
DA:287,1
DA:289,1
DA:290,1
DA:292,7
DA:293,5
DA:294,5
DA:295,5
DA:297,5
DA:298,5
DA:300,1
DA:301,1
DA:305,14064187465
DA:306,14064187465
DA:310,2
DA:311,2
DA:312,2
DA:313,1
DA:315,4
DA:316,3
DA:318,1
DA:319,1
DA:320,1
DA:321,1
DA:323,2
DA:327,1
DA:328,1
DA:329,1
DA:330,1
DA:331,1
DA:333,5
DA:334,3
DA:335,3
DA:336,3
DA:338,3
DA:339,3
DA:341,1
DA:342,1
DA:343,0
DA:345,1
LF:176
LH:171
end_of_record
TN:
SF:/home/Vlad/Documents/VC Code/SecondSemestr/Lab_3/include/hashtable.h
FN:101,107,_ZNK10LinkedListINSt7__cxx1112basic_stringIcSt11char_traitsIcESaIcEEEiE12save_to_fileERSt14basic_ofstreamIcS3_E
FN:146,152,_ZNK9HashTableINSt7__cxx1112basic_stringIcSt11char_traitsIcESaIcEEEiE4hashERKS5_
FN:154,156,_ZNK9HashTableIiNSt7__cxx1112basic_stringIcSt11char_traitsIcESaIcEEEE4hashEi
FN:154,156,_ZNK9HashTableIiiE4hashEi
FN:154,156,_ZNK9HashTableImNSt7__cxx1112basic_stringIcSt11char_traitsIcESaIcEEEE4hashEi
FN:159,161,_ZN9HashTableINSt7__cxx1112basic_stringIcSt11char_traitsIcESaIcEEEiEC2Em
FN:159,161,_ZN9HashTableIiNSt7__cxx1112basic_stringIcSt11char_traitsIcESaIcEEEEC2Em
FN:159,161,_ZN9HashTableIiiEC2Em
FN:159,161,_ZN9HashTableImNSt7__cxx1112basic_stringIcSt11char_traitsIcESaIcEEEEC2Em
FN:163,165,_ZN9HashTableINSt7__cxx1112basic_stringIcSt11char_traitsIcESaIcEEEiED2Ev
FN:163,165,_ZN9HashTableIiNSt7__cxx1112basic_stringIcSt11char_traitsIcESaIcEEEED2Ev
FN:163,165,_ZN9HashTableIiiED2Ev
FN:163,165,_ZN9HashTableImNSt7__cxx1112basic_stringIcSt11char_traitsIcESaIcEEEED2Ev
FN:167,173,_ZN9HashTableINSt7__cxx1112basic_stringIcSt11char_traitsIcESaIcEEEiE6insertERKS5_RKi
FN:167,173,_ZN9HashTableIiNSt7__cxx1112basic_stringIcSt11char_traitsIcESaIcEEEE6insertERKiRKS5_
FN:167,173,_ZN9HashTableIiiE6insertERKiS2_
FN:167,173,_ZN9HashTableImNSt7__cxx1112basic_stringIcSt11char_traitsIcESaIcEEEE6insertERKmRKS5_
FN:175,178,_ZNK9HashTableINSt7__cxx1112basic_stringIcSt11char_traitsIcESaIcEEEiE3getERKS5_
FN:175,178,_ZNK9HashTableIiiE3getERKi
FN:175,178,_ZNK9HashTableImNSt7__cxx1112basic_stringIcSt11char_traitsIcESaIcEEEE3getERKm
FN:18,18,_ZN10LinkedListINSt7__cxx1112basic_stringIcSt11char_traitsIcESaIcEEEiE4NodeC2ERKS5_RKi
FN:18,18,_ZN10LinkedListIiNSt7__cxx1112basic_stringIcSt11char_traitsIcESaIcEEEE4NodeC2ERKiRKS5_
FN:18,18,_ZN10LinkedListIiiE4NodeC2ERKiS3_
FN:18,18,_ZN10LinkedListImNSt7__cxx1112basic_stringIcSt11char_traitsIcESaIcEEEE4NodeC2ERKmRKS5_
FN:180,186,_ZN9HashTableINSt7__cxx1112basic_stringIcSt11char_traitsIcESaIcEEEiE6removeERKS5_
FN:180,186,_ZN9HashTableIiiE6removeERKi
FN:188,193,_ZNK9HashTableIiNSt7__cxx1112basic_stringIcSt11char_traitsIcESaIcEEEE5printEv
FN:195,197,_ZNK9HashTableINSt7__cxx1112basic_stringIcSt11char_traitsIcESaIcEEEiE8get_sizeEv
FN:199,211,_ZN9HashTableINSt7__cxx1112basic_stringIcSt11char_traitsIcESaIcEEEiE14load_from_fileERKS5_
FN:213,224,_ZNK9HashTableINSt7__cxx1112basic_stringIcSt11char_traitsIcESaIcEEEiE12save_to_fileERKS5_
FN:24,24,_ZN10LinkedListINSt7__cxx1112basic_stringIcSt11char_traitsIcESaIcEEEiEC2Ev
FN:24,24,_ZN10LinkedListIiNSt7__cxx1112basic_stringIcSt11char_traitsIcESaIcEEEEC2Ev
FN:24,24,_ZN10LinkedListIiiEC2Ev
FN:24,24,_ZN10LinkedListImNSt7__cxx1112basic_stringIcSt11char_traitsIcESaIcEEEEC2Ev
FN:26,33,_ZN10LinkedListINSt7__cxx1112basic_stringIcSt11char_traitsIcESaIcEEEiED2Ev
FN:26,33,_ZN10LinkedListIiNSt7__cxx1112basic_stringIcSt11char_traitsIcESaIcEEEED2Ev
FN:26,33,_ZN10LinkedListIiiED2Ev
FN:26,33,_ZN10LinkedListImNSt7__cxx1112basic_stringIcSt11char_traitsIcESaIcEEEED2Ev
FN:35,47,_ZN10LinkedListINSt7__cxx1112basic_stringIcSt11char_traitsIcESaIcEEEiE11insert_listERKS5_RKi
FN:35,47,_ZN10LinkedListIiNSt7__cxx1112basic_stringIcSt11char_traitsIcESaIcEEEE11insert_listERKiRKS5_
FN:35,47,_ZN10LinkedListIiiE11insert_listERKiS2_
FN:35,47,_ZN10LinkedListImNSt7__cxx1112basic_stringIcSt11char_traitsIcESaIcEEEE11insert_listERKmRKS5_
FN:49,58,_ZNK10LinkedListINSt7__cxx1112basic_stringIcSt11char_traitsIcESaIcEEEiE8get_listERKS5_
FN:49,58,_ZNK10LinkedListIiiE8get_listERKi
FN:49,58,_ZNK10LinkedListImNSt7__cxx1112basic_stringIcSt11char_traitsIcESaIcEEEE8get_listERKm
FN:60,79,_ZN10LinkedListINSt7__cxx1112basic_stringIcSt11char_traitsIcESaIcEEEiE11remove_listERKS5_
FN:60,79,_ZN10LinkedListIiiE11remove_listERKi
FN:81,88,_ZNK10LinkedListIiNSt7__cxx1112basic_stringIcSt11char_traitsIcESaIcEEEE5printEv
FN:90,99,_ZNK10LinkedListINSt7__cxx1112basic_stringIcSt11char_traitsIcESaIcEEEiE8containsERKS5_
FN:90,99,_ZNK10LinkedListIiNSt7__cxx1112basic_stringIcSt11char_traitsIcESaIcEEEE8containsERKi
FN:90,99,_ZNK10LinkedListIiiE8containsERKi
FN:90,99,_ZNK10LinkedListImNSt7__cxx1112basic_stringIcSt11char_traitsIcESaIcEEEE8containsERKm
FNDA:10,_ZNK10LinkedListINSt7__cxx1112basic_stringIcSt11char_traitsIcESaIcEEEiE12save_to_fileERSt14basic_ofstreamIcS3_E
FNDA:15,_ZNK9HashTableINSt7__cxx1112basic_stringIcSt11char_traitsIcESaIcEEEiE4hashERKS5_
FNDA:3,_ZNK9HashTableIiNSt7__cxx1112basic_stringIcSt11char_traitsIcESaIcEEEE4hashEi
FNDA:4,_ZNK9HashTableIiiE4hashEi
FNDA:4,_ZNK9HashTableImNSt7__cxx1112basic_stringIcSt11char_traitsIcESaIcEEEE4hashEi
FNDA:4,_ZN9HashTableINSt7__cxx1112basic_stringIcSt11char_traitsIcESaIcEEEiEC2Em
FNDA:1,_ZN9HashTableIiNSt7__cxx1112basic_stringIcSt11char_traitsIcESaIcEEEEC2Em
FNDA:73,_ZN9HashTableIiiEC2Em
FNDA:1,_ZN9HashTableImNSt7__cxx1112basic_stringIcSt11char_traitsIcESaIcEEEEC2Em
FNDA:4,_ZN9HashTableINSt7__cxx1112basic_stringIcSt11char_traitsIcESaIcEEEiED2Ev
FNDA:1,_ZN9HashTableIiNSt7__cxx1112basic_stringIcSt11char_traitsIcESaIcEEEED2Ev
FNDA:73,_ZN9HashTableIiiED2Ev
FNDA:1,_ZN9HashTableImNSt7__cxx1112basic_stringIcSt11char_traitsIcESaIcEEEED2Ev
FNDA:9,_ZN9HashTableINSt7__cxx1112basic_stringIcSt11char_traitsIcESaIcEEEiE6insertERKS5_RKi
FNDA:3,_ZN9HashTableIiNSt7__cxx1112basic_stringIcSt11char_traitsIcESaIcEEEE6insertERKiRKS5_
FNDA:1196851022,_ZN9HashTableIiiE6insertERKiS2_
FNDA:2,_ZN9HashTableImNSt7__cxx1112basic_stringIcSt11char_traitsIcESaIcEEEE6insertERKmRKS5_
FNDA:4,_ZNK9HashTableINSt7__cxx1112basic_stringIcSt11char_traitsIcESaIcEEEiE3getERKS5_
FNDA:2,_ZNK9HashTableIiiE3getERKi
FNDA:2,_ZNK9HashTableImNSt7__cxx1112basic_stringIcSt11char_traitsIcESaIcEEEE3getERKm
FNDA:8,_ZN10LinkedListINSt7__cxx1112basic_stringIcSt11char_traitsIcESaIcEEEiE4NodeC2ERKS5_RKi
FNDA:6,_ZN10LinkedListIiNSt7__cxx1112basic_stringIcSt11char_traitsIcESaIcEEEE4NodeC2ERKiRKS5_
FNDA:2,_ZN10LinkedListIiiE4NodeC2ERKiS3_
FNDA:2,_ZN10LinkedListImNSt7__cxx1112basic_stringIcSt11char_traitsIcESaIcEEEE4NodeC2ERKmRKS5_
FNDA:2,_ZN9HashTableINSt7__cxx1112basic_stringIcSt11char_traitsIcESaIcEEEiE6removeERKS5_
FNDA:1442917500,_ZN9HashTableIiiE6removeERKi
FNDA:1,_ZNK9HashTableIiNSt7__cxx1112basic_stringIcSt11char_traitsIcESaIcEEEE5printEv
FNDA:1,_ZNK9HashTableINSt7__cxx1112basic_stringIcSt11char_traitsIcESaIcEEEiE8get_sizeEv
FNDA:1,_ZN9HashTableINSt7__cxx1112basic_stringIcSt11char_traitsIcESaIcEEEiE14load_from_fileERKS5_
FNDA:1,_ZNK9HashTableINSt7__cxx1112basic_stringIcSt11char_traitsIcESaIcEEEiE12save_to_fileERKS5_
FNDA:40,_ZN10LinkedListINSt7__cxx1112basic_stringIcSt11char_traitsIcESaIcEEEiEC2Ev
FNDA:6,_ZN10LinkedListIiNSt7__cxx1112basic_stringIcSt11char_traitsIcESaIcEEEEC2Ev
FNDA:3,_ZN10LinkedListIiiEC2Ev
FNDA:10,_ZN10LinkedListImNSt7__cxx1112basic_stringIcSt11char_traitsIcESaIcEEEEC2Ev
FNDA:40,_ZN10LinkedListINSt7__cxx1112basic_stringIcSt11char_traitsIcESaIcEEEiED2Ev
FNDA:6,_ZN10LinkedListIiNSt7__cxx1112basic_stringIcSt11char_traitsIcESaIcEEEED2Ev
FNDA:3,_ZN10LinkedListIiiED2Ev
FNDA:10,_ZN10LinkedListImNSt7__cxx1112basic_stringIcSt11char_traitsIcESaIcEEEED2Ev
FNDA:9,_ZN10LinkedListINSt7__cxx1112basic_stringIcSt11char_traitsIcESaIcEEEiE11insert_listERKS5_RKi
FNDA:6,_ZN10LinkedListIiNSt7__cxx1112basic_stringIcSt11char_traitsIcESaIcEEEE11insert_listERKiRKS5_
FNDA:1196851022,_ZN10LinkedListIiiE11insert_listERKiS2_
FNDA:2,_ZN10LinkedListImNSt7__cxx1112basic_stringIcSt11char_traitsIcESaIcEEEE11insert_listERKmRKS5_
FNDA:4,_ZNK10LinkedListINSt7__cxx1112basic_stringIcSt11char_traitsIcESaIcEEEiE8get_listERKS5_
FNDA:904920772,_ZNK10LinkedListIiiE8get_listERKi
FNDA:2,_ZNK10LinkedListImNSt7__cxx1112basic_stringIcSt11char_traitsIcESaIcEEEE8get_listERKm
FNDA:2,_ZN10LinkedListINSt7__cxx1112basic_stringIcSt11char_traitsIcESaIcEEEiE11remove_listERKS5_
FNDA:1442917500,_ZN10LinkedListIiiE11remove_listERKi
FNDA:6,_ZNK10LinkedListIiNSt7__cxx1112basic_stringIcSt11char_traitsIcESaIcEEEE5printEv
FNDA:11,_ZNK10LinkedListINSt7__cxx1112basic_stringIcSt11char_traitsIcESaIcEEEiE8containsERKS5_
FNDA:3,_ZNK10LinkedListIiNSt7__cxx1112basic_stringIcSt11char_traitsIcESaIcEEEE8containsERKi
FNDA:2,_ZNK10LinkedListIiiE8containsERKi
FNDA:2,_ZNK10LinkedListImNSt7__cxx1112basic_stringIcSt11char_traitsIcESaIcEEEE8containsERKm
FNF:52
FNH:52
DA:18,23688
DA:24,72059
DA:26,72059
DA:27,72059
DA:28,87855
DA:29,15796
DA:30,15796
DA:31,15796
DA:33,72059
DA:35,1196851039
DA:36,1196851039
DA:37,1196851043
DA:38,1196827355
DA:39,1196827351
DA:40,1196827351
DA:42,4
DA:44,23688
DA:45,23688
DA:46,23688
DA:49,904920778
DA:50,904920778
DA:51,904920779
DA:52,904920778
DA:53,904920777
DA:55,1
DA:57,1
DA:60,1442917502
DA:61,1442917502
DA:62,7892
DA:63,7892
DA:64,7892
DA:65,7892
DA:66,7892
DA:69,0
DA:70,0
DA:71,0
DA:74,0
DA:75,0
DA:76,0
DA:77,0
DA:81,6
DA:82,6
DA:83,12
DA:84,6
DA:85,6
DA:87,6
DA:88,6
DA:90,2639768538
DA:91,2639768538
DA:92,2639768539
DA:93,1196835244
DA:94,3
DA:96,1
DA:98,15
DA:101,10
DA:102,10
DA:103,12
DA:104,2
DA:105,2
DA:107,10
DA:146,15
DA:147,15
DA:148,75
DA:149,60
DA:151,15
DA:154,3544689301
DA:155,3544689301
DA:159,79
DA:160,72137
DA:161,79
DA:163,79
DA:164,72137
DA:165,79
DA:167,1196851036
DA:168,1196851036
DA:169,2393702056
DA:170,23685
DA:172,1196851036
DA:173,1196851036
DA:175,904920778
DA:176,904920778
DA:177,904920778
DA:180,1442917502
DA:181,1442917502
DA:182,2885835002
DA:183,7892
DA:185,1442917502
DA:186,1442917502
DA:188,1
DA:189,6
DA:190,5
DA:191,5
DA:193,1
DA:195,1
DA:196,1
DA:199,1
DA:200,1
DA:201,1
DA:202,1
DA:204,3
DA:205,2
DA:207,1
DA:208,1
DA:209,0
DA:211,1
DA:213,1
DA:214,1
DA:215,1
DA:216,11
DA:217,10
DA:218,10
DA:220,1
DA:222,0
DA:224,1
LF:114
LH:105
end_of_record
TN:
SF:/home/Vlad/Documents/VC Code/SecondSemestr/Lab_3/include/list.h
FN:101,110,_ZN16SinglyLinkedListIiE4findERKi
FN:112,119,_ZNK16SinglyLinkedListIiE5printEv
FN:121,123,_ZNK16SinglyLinkedListIiE8get_sizeEv
FN:125,134,_ZN16SinglyLinkedListIiE14load_from_fileERKNSt7__cxx1112basic_stringIcSt11char_traitsIcESaIcEEE
FN:136,148,_ZNK16SinglyLinkedListIiE12save_to_fileERKNSt7__cxx1112basic_stringIcSt11char_traitsIcESaIcEEE
FN:16,16,_ZN16SinglyLinkedListIiE4NodeC2ERKi
FN:23,23,_ZN16SinglyLinkedListIiEC2Ev
FN:25,29,_ZN16SinglyLinkedListIiED2Ev
FN:31,36,_ZN16SinglyLinkedListIiE10push_frontERKi
FN:38,50,_ZN16SinglyLinkedListIiE9push_backERKi
FN:52,58,_ZN16SinglyLinkedListIiE9pop_frontEv
FN:60,74,_ZN16SinglyLinkedListIiE8pop_backEv
FN:76,99,_ZN16SinglyLinkedListIiE6removeERKi
FNDA:18,_ZN16SinglyLinkedListIiE4findERKi
FNDA:1,_ZNK16SinglyLinkedListIiE5printEv
FNDA:18,_ZNK16SinglyLinkedListIiE8get_sizeEv
FNDA:1,_ZN16SinglyLinkedListIiE14load_from_fileERKNSt7__cxx1112basic_stringIcSt11char_traitsIcESaIcEEE
FNDA:1,_ZNK16SinglyLinkedListIiE12save_to_fileERKNSt7__cxx1112basic_stringIcSt11char_traitsIcESaIcEEE
FNDA:22,_ZN16SinglyLinkedListIiE4NodeC2ERKi
FNDA:10,_ZN16SinglyLinkedListIiEC2Ev
FNDA:10,_ZN16SinglyLinkedListIiED2Ev
FNDA:2,_ZN16SinglyLinkedListIiE10push_frontERKi
FNDA:110876520,_ZN16SinglyLinkedListIiE9push_backERKi
FNDA:196201509,_ZN16SinglyLinkedListIiE9pop_frontEv
FNDA:4,_ZN16SinglyLinkedListIiE8pop_backEv
FNDA:4,_ZN16SinglyLinkedListIiE6removeERKi
FNF:13
FNH:13
DA:16,196201512
DA:23,11718771
DA:25,2839784
DA:26,171047704
DA:27,159328933
DA:29,11718771
DA:31,85324992
DA:32,85324992
DA:33,85324992
DA:34,85324992
DA:35,85324992
DA:36,2
DA:38,110876520
DA:39,110876520
DA:40,110876520
DA:41,8502697
DA:43,11
DA:44,3503481763
DA:45,2
DA:47,102373823
DA:49,110876520
DA:50,110876520
DA:52,196201509
DA:53,196201509
DA:54,196201508
DA:55,196201508
DA:56,196201508
DA:57,196201508
DA:58,196201508
DA:60,4
DA:61,4
DA:62,3
DA:63,2
DA:64,2
DA:66,1
DA:67,1
DA:68,0
DA:70,1
DA:71,1
DA:73,3
DA:74,3
DA:76,4
DA:77,4
DA:79,3
DA:80,2
DA:81,2
DA:84,1
DA:85,1
DA:86,0
DA:89,1
DA:90,1
DA:91,1
DA:92,1
DA:93,1
DA:94,1
DA:96,0
DA:101,18
DA:102,18
DA:103,30
DA:104,26
DA:105,14
DA:107,12
DA:109,4
DA:112,1
DA:113,1
DA:114,3
DA:115,2
DA:116,2
DA:118,1
DA:119,1
DA:121,18
DA:122,18
DA:125,1
DA:126,1
DA:127,1
DA:129,3
DA:130,2
DA:132,1
DA:134,1
DA:136,1
DA:137,1
DA:138,1
DA:139,1
DA:140,3
DA:141,2
DA:142,2
DA:144,1
DA:146,0
DA:148,1
LF:89
LH:85
end_of_record
TN:
SF:/home/Vlad/Documents/VC Code/SecondSemestr/Lab_3/include/queue.h
FN:16,16,_ZN5QueueIiE4NodeC2ERKi
FN:24,24,_ZN5QueueIiEC2Ev
FN:26,30,_ZN5QueueIiED2Ev
FN:32,41,_ZN5QueueIiE4pushERKi
FN:43,50,_ZN5QueueIiE3popEv
FN:52,55,_ZNK5QueueIiE11front_valueEv
FN:57,59,_ZNK5QueueIiE8get_sizeEv
FN:61,68,_ZNK5QueueIiE5printEv
FN:70,81,_ZN5QueueIiE14load_from_fileERKNSt7__cxx1112basic_stringIcSt11char_traitsIcESaIcEEE
FN:84,96,_ZNK5QueueIiE12save_to_fileERKNSt7__cxx1112basic_stringIcSt11char_traitsIcESaIcEEE
FNDA:12,_ZN5QueueIiE4NodeC2ERKi
FNDA:8,_ZN5QueueIiEC2Ev
FNDA:8,_ZN5QueueIiED2Ev
FNDA:214000175,_ZN5QueueIiE4pushERKi
FNDA:214000176,_ZN5QueueIiE3popEv
FNDA:6,_ZNK5QueueIiE11front_valueEv
FNDA:5,_ZNK5QueueIiE8get_sizeEv
FNDA:1,_ZNK5QueueIiE5printEv
FNDA:163239,_ZN5QueueIiE14load_from_fileERKNSt7__cxx1112basic_stringIcSt11char_traitsIcESaIcEEE
FNDA:20605,_ZNK5QueueIiE12save_to_fileERKNSt7__cxx1112basic_stringIcSt11char_traitsIcESaIcEEE
FNF:10
FNH:10
DA:16,214000175
DA:24,163309
DA:26,163288
DA:27,129417751
DA:28,129254442
DA:30,163309
DA:32,214000175
DA:33,214000175
DA:34,214000175
DA:35,3327427
DA:37,210672748
DA:38,210672748
DA:40,214000175
DA:41,214000175
DA:43,214000176
DA:44,214000176
DA:45,214000175
DA:46,214000175
DA:47,214000175
DA:48,214000175
DA:49,214000175
DA:50,214000175
DA:52,6
DA:53,6
DA:54,5
DA:57,5
DA:58,5
DA:61,1
DA:62,1
DA:63,3
DA:64,2
DA:65,2
DA:67,1
DA:68,1
DA:70,163239
DA:71,163239
DA:72,163239
DA:74,12400951
DA:75,12237712
DA:77,163239
DA:79,0
DA:81,163239
DA:84,20605
DA:85,20605
DA:86,20605
DA:87,20605
DA:88,5018337
DA:89,4997732
DA:90,4997732
DA:92,20605
DA:94,0
DA:96,20605
LF:52
LH:50
end_of_record
TN:
SF:/home/Vlad/Documents/VC Code/SecondSemestr/Lab_3/include/stack.h
FN:102,114,_ZNK5StackIiE12save_to_fileERKNSt7__cxx1112basic_stringIcSt11char_traitsIcESaIcEEE
FN:16,16,_ZN5StackIiE4NodeC2ERKi
FN:24,24,_ZN5StackIiEC2Em
FN:26,30,_ZN5StackIiED2Ev
FN:32,41,_ZN5StackIiE4pushERKi
FN:43,48,_ZNK5StackIiE4peekEv
FN:50,56,_ZN5StackIiE3popEv
FN:63,65,_ZNK5StackIiE8get_sizeEv
FN:67,74,_ZNK5StackIiE5printEv
FN:77,99,_ZN5StackIiE14load_from_fileERKNSt7__cxx1112basic_stringIcSt11char_traitsIcESaIcEEE
FNDA:1,_ZNK5StackIiE12save_to_fileERKNSt7__cxx1112basic_stringIcSt11char_traitsIcESaIcEEE
FNDA:17,_ZN5StackIiE4NodeC2ERKi
FNDA:11,_ZN5StackIiEC2Em
FNDA:11,_ZN5StackIiED2Ev
FNDA:169319678,_ZN5StackIiE4pushERKi
FNDA:1473505039,_ZNK5StackIiE4peekEv
FNDA:169319678,_ZN5StackIiE3popEv
FNDA:8,_ZNK5StackIiE8get_sizeEv
FNDA:1,_ZNK5StackIiE5printEv
FNDA:1,_ZN5StackIiE14load_from_fileERKNSt7__cxx1112basic_stringIcSt11char_traitsIcESaIcEEE
FNF:10
FNH:10
DA:16,169319677
DA:24,6333217
DA:26,41
DA:27,91173190
DA:28,84839973
DA:30,6333217
DA:32,169319678
DA:33,169319678
DA:34,1
DA:35,1
DA:37,169319677
DA:38,169319677
DA:39,169319677
DA:40,169319677
DA:43,1473505039
DA:44,1473505039
DA:45,1
DA:47,1473505038
DA:50,169319678
DA:51,169319678
DA:52,169319677
DA:53,169319677
DA:54,169319677
DA:55,169319677
DA:56,169319677
DA:63,8
DA:64,8
DA:67,1
DA:68,1
DA:69,3
DA:70,2
DA:71,2
DA:73,1
DA:74,1
DA:77,1
DA:78,1
DA:79,1
DA:80,1
DA:84,4
DA:85,3
DA:88,1
DA:92,4
DA:93,3
DA:94,3
DA:96,1
DA:97,0
DA:99,1
DA:102,1
DA:103,1
DA:104,1
DA:105,1
DA:106,3
DA:107,2
DA:108,2
DA:110,1
DA:112,0
DA:114,1
LF:57
LH:55
end_of_record
TN:
SF:/home/Vlad/Documents/VC Code/SecondSemestr/Lab_3/include/twolist.h
FN:102,111,_ZN16DoublyLinkedListIiE4findERKi
FN:113,120,_ZNK16DoublyLinkedListIiE5printEv
FN:122,124,_ZNK16DoublyLinkedListIiE8get_sizeEv
FN:126,135,_ZN16DoublyLinkedListIiE14load_from_fileERKNSt7__cxx1112basic_stringIcSt11char_traitsIcESaIcEEE
FN:137,149,_ZNK16DoublyLinkedListIiE12save_to_fileERKNSt7__cxx1112basic_stringIcSt11char_traitsIcESaIcEEE
FN:17,17,_ZN16DoublyLinkedListIiE4NodeC2ERKi
FN:25,25,_ZN16DoublyLinkedListIiEC2Ev
FN:27,31,_ZN16DoublyLinkedListIiED2Ev
FN:33,43,_ZN16DoublyLinkedListIiE10push_frontERKi
FN:45,55,_ZN16DoublyLinkedListIiE9push_backERKi
FN:57,65,_ZN16DoublyLinkedListIiE9pop_frontEv
FN:67,75,_ZN16DoublyLinkedListIiE8pop_backEv
FN:77,100,_ZN16DoublyLinkedListIiE6removeERKi
FNDA:18,_ZN16DoublyLinkedListIiE4findERKi
FNDA:1,_ZNK16DoublyLinkedListIiE5printEv
FNDA:7,_ZNK16DoublyLinkedListIiE8get_sizeEv
FNDA:1,_ZN16DoublyLinkedListIiE14load_from_fileERKNSt7__cxx1112basic_stringIcSt11char_traitsIcESaIcEEE
FNDA:1,_ZNK16DoublyLinkedListIiE12save_to_fileERKNSt7__cxx1112basic_stringIcSt11char_traitsIcESaIcEEE
FNDA:28,_ZN16DoublyLinkedListIiE4NodeC2ERKi
FNDA:10,_ZN16DoublyLinkedListIiEC2Ev
FNDA:10,_ZN16DoublyLinkedListIiED2Ev
FNDA:168004603,_ZN16DoublyLinkedListIiE10push_frontERKi
FNDA:206247065,_ZN16DoublyLinkedListIiE9push_backERKi
FNDA:289857446,_ZN16DoublyLinkedListIiE9pop_frontEv
FNDA:84394221,_ZN16DoublyLinkedListIiE8pop_backEv
FNDA:1,_ZN16DoublyLinkedListIiE6removeERKi
FNF:13
FNH:13
DA:17,374251668
DA:25,15445743
DA:27,6314182
DA:28,221160488
DA:29,205714745
DA:31,15445743
DA:33,168004603
DA:34,168004603
DA:35,168004603
DA:36,6303644
DA:38,161700959
DA:39,161700959
DA:40,161700959
DA:42,168004603
DA:43,168004603
DA:45,206247065
DA:46,206247065
DA:47,206247065
DA:48,9142098
DA:50,197104967
DA:51,197104967
DA:52,197104967
DA:54,206247065
DA:55,206247065
DA:57,289857446
DA:58,289857446
DA:59,289857446
DA:60,289857446
DA:61,289857446
DA:62,12284928
DA:63,289857446
DA:64,289857446
DA:65,289857446
DA:67,84394221
DA:68,84394221
DA:69,84394221
DA:70,84394221
DA:71,84394221
DA:72,3160814
DA:73,84394221
DA:74,84394221
DA:75,84394221
DA:77,1
DA:78,1
DA:79,2
DA:80,2
DA:81,1
DA:82,0
DA:83,0
DA:84,1
DA:85,0
DA:86,0
DA:88,1
DA:89,1
DA:90,1
DA:91,1
DA:92,1
DA:94,1
DA:96,1
DA:99,0
DA:102,37765408
DA:103,37765408
DA:104,1288776879
DA:105,1288776875
DA:106,14
DA:108,1251011471
DA:110,4
DA:113,1
DA:114,1
DA:115,5
DA:116,4
DA:117,4
DA:119,1
DA:120,1
DA:122,7
DA:123,7
DA:126,1
DA:127,1
DA:128,1
DA:130,4
DA:131,3
DA:133,1
DA:135,1
DA:137,1
DA:138,1
DA:139,1
DA:140,1
DA:141,4
DA:142,3
DA:143,3
DA:145,1
DA:147,0
DA:149,1
LF:93
LH:87
end_of_record
TN:
SF:/home/Vlad/Documents/VC Code/SecondSemestr/Lab_3/tests/array_benchmark.cpp
FN:17,27,_ZL16BM_ArrayInsertAtRN9benchmark5StateE
FN:30,39,_ZL16BM_ArrayRemoveAtRN9benchmark5StateE
FN:46,46,main
FN:5,14,_ZL16BM_ArrayPushBackRN9benchmark5StateE
FNDA:23,_ZL16BM_ArrayInsertAtRN9benchmark5StateE
FNDA:23,_ZL16BM_ArrayRemoveAtRN9benchmark5StateE
FNDA:1,main
FNDA:25,_ZL16BM_ArrayPushBackRN9benchmark5StateE
FNF:4
FNH:4
DA:5,25
DA:6,25
DA:7,37604487
DA:8,37604437
DA:9,3766093457
DA:10,3728489020
DA:12,37604437
DA:13,25
DA:14,25
DA:17,23
DA:18,23
DA:19,22711434
DA:20,22711388
DA:21,2106536990
DA:22,2083825602
DA:24,22711388
DA:26,23
DA:27,23
DA:30,23
DA:31,22354699
DA:32,22354653
DA:33,2052473073
DA:34,2030118420
DA:36,22354653
DA:37,22354653
DA:38,23
DA:39,23
DA:46,1
LF:28
LH:28
end_of_record
TN:
SF:/home/Vlad/Documents/VC Code/SecondSemestr/Lab_3/tests/array_test.cpp
FN:14,14,_ZN28ArrayTest_InsertAtWorks_Test8TestBodyEv
FN:14,14,_ZN28ArrayTest_InsertAtWorks_TestC2Ev
FN:14,14,_ZN28ArrayTest_InsertAtWorks_TestD0Ev
FN:14,14,_ZN28ArrayTest_InsertAtWorks_TestD2Ev
FN:24,24,_ZN39ArrayTest_InsertAtThrowsOnOverflow_Test8TestBodyEv
FN:24,24,_ZN39ArrayTest_InsertAtThrowsOnOverflow_TestC2Ev
FN:24,24,_ZN39ArrayTest_InsertAtThrowsOnOverflow_TestD0Ev
FN:24,24,_ZN39ArrayTest_InsertAtThrowsOnOverflow_TestD2Ev
FN:32,32,_ZN28ArrayTest_RemoveAtWorks_Test8TestBodyEv
FN:32,32,_ZN28ArrayTest_RemoveAtWorks_TestC2Ev
FN:32,32,_ZN28ArrayTest_RemoveAtWorks_TestD0Ev
FN:32,32,_ZN28ArrayTest_RemoveAtWorks_TestD2Ev
FN:43,43,_ZN43ArrayTest_RemoveAtThrowsOnInvalidIndex_Test8TestBodyEv
FN:43,43,_ZN43ArrayTest_RemoveAtThrowsOnInvalidIndex_TestC2Ev
FN:43,43,_ZN43ArrayTest_RemoveAtThrowsOnInvalidIndex_TestD0Ev
FN:43,43,_ZN43ArrayTest_RemoveAtThrowsOnInvalidIndex_TestD2Ev
FN:49,49,_ZN29ArrayTest_ReplaceAtWorks_Test8TestBodyEv
FN:49,49,_ZN29ArrayTest_ReplaceAtWorks_TestC2Ev
FN:49,49,_ZN29ArrayTest_ReplaceAtWorks_TestD0Ev
FN:49,49,_ZN29ArrayTest_ReplaceAtWorks_TestD2Ev
FN:57,57,_ZN25ArrayTest_GetAtWorks_Test8TestBodyEv
FN:57,57,_ZN25ArrayTest_GetAtWorks_TestC2Ev
FN:57,57,_ZN25ArrayTest_GetAtWorks_TestD0Ev
FN:57,57,_ZN25ArrayTest_GetAtWorks_TestD2Ev
FN:6,6,_ZN39ArrayTest_PushBackThrowsOnOverflow_Test8TestBodyEv
FN:6,6,_ZN39ArrayTest_PushBackThrowsOnOverflow_TestC2Ev
FN:6,6,_ZN39ArrayTest_PushBackThrowsOnOverflow_TestD0Ev
FN:6,6,_ZN39ArrayTest_PushBackThrowsOnOverflow_TestD2Ev
FN:64,77,_ZN32ArrayTest_LoadFromFileWorks_Test8TestBodyEv
FN:64,77,_ZN32ArrayTest_LoadFromFileWorks_TestC2Ev
FN:64,77,_ZN32ArrayTest_LoadFromFileWorks_TestD0Ev
FN:64,77,_ZN32ArrayTest_LoadFromFileWorks_TestD2Ev
FN:80,80,_ZN30ArrayTest_SaveToFileWorks_Test8TestBodyEv
FN:80,80,_ZN30ArrayTest_SaveToFileWorks_TestC2Ev
FN:80,80,_ZN30ArrayTest_SaveToFileWorks_TestD0Ev
FN:80,80,_ZN30ArrayTest_SaveToFileWorks_TestD2Ev
FNDA:1,_ZN28ArrayTest_InsertAtWorks_Test8TestBodyEv
FNDA:1,_ZN28ArrayTest_InsertAtWorks_TestC2Ev
FNDA:1,_ZN28ArrayTest_InsertAtWorks_TestD0Ev
FNDA:1,_ZN28ArrayTest_InsertAtWorks_TestD2Ev
FNDA:1,_ZN39ArrayTest_InsertAtThrowsOnOverflow_Test8TestBodyEv
FNDA:1,_ZN39ArrayTest_InsertAtThrowsOnOverflow_TestC2Ev
FNDA:1,_ZN39ArrayTest_InsertAtThrowsOnOverflow_TestD0Ev
FNDA:1,_ZN39ArrayTest_InsertAtThrowsOnOverflow_TestD2Ev
FNDA:1,_ZN28ArrayTest_RemoveAtWorks_Test8TestBodyEv
FNDA:1,_ZN28ArrayTest_RemoveAtWorks_TestC2Ev
FNDA:1,_ZN28ArrayTest_RemoveAtWorks_TestD0Ev
FNDA:1,_ZN28ArrayTest_RemoveAtWorks_TestD2Ev
FNDA:1,_ZN43ArrayTest_RemoveAtThrowsOnInvalidIndex_Test8TestBodyEv
FNDA:1,_ZN43ArrayTest_RemoveAtThrowsOnInvalidIndex_TestC2Ev
FNDA:1,_ZN43ArrayTest_RemoveAtThrowsOnInvalidIndex_TestD0Ev
FNDA:1,_ZN43ArrayTest_RemoveAtThrowsOnInvalidIndex_TestD2Ev
FNDA:1,_ZN29ArrayTest_ReplaceAtWorks_Test8TestBodyEv
FNDA:1,_ZN29ArrayTest_ReplaceAtWorks_TestC2Ev
FNDA:1,_ZN29ArrayTest_ReplaceAtWorks_TestD0Ev
FNDA:1,_ZN29ArrayTest_ReplaceAtWorks_TestD2Ev
FNDA:1,_ZN25ArrayTest_GetAtWorks_Test8TestBodyEv
FNDA:1,_ZN25ArrayTest_GetAtWorks_TestC2Ev
FNDA:1,_ZN25ArrayTest_GetAtWorks_TestD0Ev
FNDA:1,_ZN25ArrayTest_GetAtWorks_TestD2Ev
FNDA:1,_ZN39ArrayTest_PushBackThrowsOnOverflow_Test8TestBodyEv
FNDA:1,_ZN39ArrayTest_PushBackThrowsOnOverflow_TestC2Ev
FNDA:1,_ZN39ArrayTest_PushBackThrowsOnOverflow_TestD0Ev
FNDA:1,_ZN39ArrayTest_PushBackThrowsOnOverflow_TestD2Ev
FNDA:1,_ZN32ArrayTest_LoadFromFileWorks_Test8TestBodyEv
FNDA:1,_ZN32ArrayTest_LoadFromFileWorks_TestC2Ev
FNDA:1,_ZN32ArrayTest_LoadFromFileWorks_TestD0Ev
FNDA:1,_ZN32ArrayTest_LoadFromFileWorks_TestD2Ev
FNDA:1,_ZN30ArrayTest_SaveToFileWorks_Test8TestBodyEv
FNDA:1,_ZN30ArrayTest_SaveToFileWorks_TestC2Ev
FNDA:1,_ZN30ArrayTest_SaveToFileWorks_TestD0Ev
FNDA:1,_ZN30ArrayTest_SaveToFileWorks_TestD2Ev
FNF:36
FNH:36
DA:6,4
DA:7,1
DA:8,1
DA:9,1
DA:10,1
DA:11,1
DA:14,4
DA:15,1
DA:16,1
DA:17,1
DA:18,1
DA:19,1
DA:20,1
DA:21,1
DA:24,4
DA:25,1
DA:26,1
DA:27,1
DA:28,1
DA:29,1
DA:32,4
DA:33,1
DA:34,1
DA:35,1
DA:36,1
DA:37,1
DA:38,1
DA:39,1
DA:40,1
DA:43,4
DA:44,1
DA:45,1
DA:46,1
DA:49,4
DA:50,1
DA:51,1
DA:52,1
DA:53,1
DA:54,1
DA:57,4
DA:58,1
DA:59,1
DA:60,1
DA:61,1
DA:64,4
DA:65,1
DA:66,1
DA:67,1
DA:68,1
DA:69,2
DA:72,1
DA:73,1
DA:74,1
DA:75,1
DA:76,1
DA:77,1
DA:80,4
DA:81,1
DA:82,1
DA:83,1
DA:85,1
DA:86,1
DA:87,1
DA:88,1
DA:89,1
LF:65
LH:65
end_of_record
TN:
SF:/home/Vlad/Documents/VC Code/SecondSemestr/Lab_3/tests/doublelist_benchmark.cpp
FN:16,25,_ZL27BM_DoublyLinkedListPushBackRN9benchmark5StateE
FN:28,40,_ZL27BM_DoublyLinkedListPopFrontRN9benchmark5StateE
FN:4,13,_ZL28BM_DoublyLinkedListPushFrontRN9benchmark5StateE
FN:43,55,_ZL26BM_DoublyLinkedListPopBackRN9benchmark5StateE
FN:58,71,_ZL23BM_DoublyLinkedListFindRN9benchmark5StateE
FNDA:21,_ZL27BM_DoublyLinkedListPushBackRN9benchmark5StateE
FNDA:21,_ZL27BM_DoublyLinkedListPopFrontRN9benchmark5StateE
FNDA:21,_ZL28BM_DoublyLinkedListPushFrontRN9benchmark5StateE
FNDA:21,_ZL26BM_DoublyLinkedListPopBackRN9benchmark5StateE
FNDA:18,_ZL23BM_DoublyLinkedListFindRN9benchmark5StateE
FNF:5
FNH:5
DA:4,21
DA:5,21
DA:6,3154991
DA:7,3154949
DA:8,87016849
DA:9,83861900
DA:11,3154949
DA:12,21
DA:13,21
DA:16,21
DA:17,21
DA:18,3159265
DA:19,3159223
DA:20,87246653
DA:21,84087430
DA:23,3159223
DA:24,21
DA:25,21
DA:28,21
DA:29,21
DA:30,3148736
DA:31,3148694
DA:32,87291394
DA:33,84142700
DA:35,87291394
DA:36,84142700
DA:39,21
DA:40,21
DA:43,21
DA:44,21
DA:45,3160856
DA:46,3160814
DA:47,87555034
DA:48,84394220
DA:50,87555034
DA:51,84394220
DA:54,21
DA:55,21
DA:58,18
DA:59,18
DA:60,2822089
DA:61,2822053
DA:62,40587443
DA:63,37765390
DA:65,40587443
DA:66,37765390
DA:67,37765390
DA:70,18
DA:71,18
LF:49
LH:49
end_of_record
TN:
SF:/home/Vlad/Documents/VC Code/SecondSemestr/Lab_3/tests/doublelist_test.cpp
FN:108,108,_ZN35DoublyLinkedListTest_TestPrint_Test8TestBodyEv
FN:108,108,_ZN35DoublyLinkedListTest_TestPrint_TestC2Ev
FN:108,108,_ZN35DoublyLinkedListTest_TestPrint_TestD0Ev
FN:108,108,_ZN35DoublyLinkedListTest_TestPrint_TestD2Ev
FN:11,11,_ZN35DoublyLinkedListTest_PushFront_Test8TestBodyEv
FN:11,11,_ZN35DoublyLinkedListTest_PushFront_TestC2Ev
FN:11,11,_ZN35DoublyLinkedListTest_PushFront_TestD0Ev
FN:11,11,_ZN35DoublyLinkedListTest_PushFront_TestD2Ev
FN:24,24,_ZN34DoublyLinkedListTest_PushBack_Test8TestBodyEv
FN:24,24,_ZN34DoublyLinkedListTest_PushBack_TestC2Ev
FN:24,24,_ZN34DoublyLinkedListTest_PushBack_TestD0Ev
FN:24,24,_ZN34DoublyLinkedListTest_PushBack_TestD2Ev
FN:37,37,_ZN34DoublyLinkedListTest_PopFront_Test8TestBodyEv
FN:37,37,_ZN34DoublyLinkedListTest_PopFront_TestC2Ev
FN:37,37,_ZN34DoublyLinkedListTest_PopFront_TestD0Ev
FN:37,37,_ZN34DoublyLinkedListTest_PopFront_TestD2Ev
FN:5,5,_ZN37DoublyLinkedListTest_Constructor_Test8TestBodyEv
FN:5,5,_ZN37DoublyLinkedListTest_Constructor_TestC2Ev
FN:5,5,_ZN37DoublyLinkedListTest_Constructor_TestD0Ev
FN:5,5,_ZN37DoublyLinkedListTest_Constructor_TestD2Ev
FN:50,50,_ZN33DoublyLinkedListTest_PopBack_Test8TestBodyEv
FN:50,50,_ZN33DoublyLinkedListTest_PopBack_TestC2Ev
FN:50,50,_ZN33DoublyLinkedListTest_PopBack_TestD0Ev
FN:50,50,_ZN33DoublyLinkedListTest_PopBack_TestD2Ev
FN:63,63,_ZN32DoublyLinkedListTest_Remove_Test8TestBodyEv
FN:63,63,_ZN32DoublyLinkedListTest_Remove_TestC2Ev
FN:63,63,_ZN32DoublyLinkedListTest_Remove_TestD0Ev
FN:63,63,_ZN32DoublyLinkedListTest_Remove_TestD2Ev
FN:77,77,_ZN30DoublyLinkedListTest_Find_Test8TestBodyEv
FN:77,77,_ZN30DoublyLinkedListTest_Find_TestC2Ev
FN:77,77,_ZN30DoublyLinkedListTest_Find_TestD0Ev
FN:77,77,_ZN30DoublyLinkedListTest_Find_TestD2Ev
FN:91,106,_ZN34DoublyLinkedListTest_SaveLoad_Test8TestBodyEv
FN:91,106,_ZN34DoublyLinkedListTest_SaveLoad_TestC2Ev
FN:91,106,_ZN34DoublyLinkedListTest_SaveLoad_TestD0Ev
FN:91,106,_ZN34DoublyLinkedListTest_SaveLoad_TestD2Ev
FNDA:1,_ZN35DoublyLinkedListTest_TestPrint_Test8TestBodyEv
FNDA:1,_ZN35DoublyLinkedListTest_TestPrint_TestC2Ev
FNDA:1,_ZN35DoublyLinkedListTest_TestPrint_TestD0Ev
FNDA:1,_ZN35DoublyLinkedListTest_TestPrint_TestD2Ev
FNDA:1,_ZN35DoublyLinkedListTest_PushFront_Test8TestBodyEv
FNDA:1,_ZN35DoublyLinkedListTest_PushFront_TestC2Ev
FNDA:1,_ZN35DoublyLinkedListTest_PushFront_TestD0Ev
FNDA:1,_ZN35DoublyLinkedListTest_PushFront_TestD2Ev
FNDA:1,_ZN34DoublyLinkedListTest_PushBack_Test8TestBodyEv
FNDA:1,_ZN34DoublyLinkedListTest_PushBack_TestC2Ev
FNDA:1,_ZN34DoublyLinkedListTest_PushBack_TestD0Ev
FNDA:1,_ZN34DoublyLinkedListTest_PushBack_TestD2Ev
FNDA:1,_ZN34DoublyLinkedListTest_PopFront_Test8TestBodyEv
FNDA:1,_ZN34DoublyLinkedListTest_PopFront_TestC2Ev
FNDA:1,_ZN34DoublyLinkedListTest_PopFront_TestD0Ev
FNDA:1,_ZN34DoublyLinkedListTest_PopFront_TestD2Ev
FNDA:1,_ZN37DoublyLinkedListTest_Constructor_Test8TestBodyEv
FNDA:1,_ZN37DoublyLinkedListTest_Constructor_TestC2Ev
FNDA:1,_ZN37DoublyLinkedListTest_Constructor_TestD0Ev
FNDA:1,_ZN37DoublyLinkedListTest_Constructor_TestD2Ev
FNDA:1,_ZN33DoublyLinkedListTest_PopBack_Test8TestBodyEv
FNDA:1,_ZN33DoublyLinkedListTest_PopBack_TestC2Ev
FNDA:1,_ZN33DoublyLinkedListTest_PopBack_TestD0Ev
FNDA:1,_ZN33DoublyLinkedListTest_PopBack_TestD2Ev
FNDA:1,_ZN32DoublyLinkedListTest_Remove_Test8TestBodyEv
FNDA:1,_ZN32DoublyLinkedListTest_Remove_TestC2Ev
FNDA:1,_ZN32DoublyLinkedListTest_Remove_TestD0Ev
FNDA:1,_ZN32DoublyLinkedListTest_Remove_TestD2Ev
FNDA:1,_ZN30DoublyLinkedListTest_Find_Test8TestBodyEv
FNDA:1,_ZN30DoublyLinkedListTest_Find_TestC2Ev
FNDA:1,_ZN30DoublyLinkedListTest_Find_TestD0Ev
FNDA:1,_ZN30DoublyLinkedListTest_Find_TestD2Ev
FNDA:1,_ZN34DoublyLinkedListTest_SaveLoad_Test8TestBodyEv
FNDA:1,_ZN34DoublyLinkedListTest_SaveLoad_TestC2Ev
FNDA:1,_ZN34DoublyLinkedListTest_SaveLoad_TestD0Ev
FNDA:1,_ZN34DoublyLinkedListTest_SaveLoad_TestD2Ev
FNF:36
FNH:36
DA:5,4
DA:6,1
DA:7,1
DA:8,1
DA:11,4
DA:12,1
DA:13,1
DA:14,1
DA:15,1
DA:17,1
DA:18,1
DA:19,1
DA:20,1
DA:21,1
DA:24,4
DA:25,1
DA:26,1
DA:27,1
DA:28,1
DA:30,1
DA:31,1
DA:32,1
DA:33,1
DA:34,1
DA:37,4
DA:38,1
DA:39,1
DA:40,1
DA:41,1
DA:43,1
DA:44,1
DA:45,1
DA:46,1
DA:47,1
DA:50,4
DA:51,1
DA:52,1
DA:53,1
DA:54,1
DA:56,1
DA:57,1
DA:58,1
DA:59,1
DA:60,1
DA:63,4
DA:64,1
DA:65,1
DA:66,1
DA:67,1
DA:69,1
DA:70,1
DA:71,1
DA:72,1
DA:73,1
DA:74,1
DA:77,4
DA:78,1
DA:79,1
DA:80,1
DA:81,1
DA:83,1
DA:84,1
DA:85,1
DA:87,1
DA:88,1
DA:91,4
DA:92,1
DA:93,1
DA:94,1
DA:95,1
DA:97,1
DA:99,1
DA:100,1
DA:102,1
DA:103,1
DA:104,1
DA:105,1
DA:106,1
DA:108,4
DA:110,1
DA:113,1
DA:114,1
DA:115,1
DA:116,1
DA:119,1
DA:120,1
DA:124,1
DA:125,0
DA:126,0
DA:127,0
DA:128,0
DA:129,0
DA:132,1
DA:135,1
DA:136,1
DA:139,1
DA:140,1
DA:141,1
DA:142,1
DA:143,1
LF:100
LH:95
end_of_record
TN:
SF:/home/Vlad/Documents/VC Code/SecondSemestr/Lab_3/tests/hashtable_benchmark.cpp
FN:18,31,_ZL15BM_HashTableGetRN9benchmark5StateE
FN:35,48,_ZL18BM_HashTableRemoveRN9benchmark5StateE
FN:5,14,_ZL18BM_HashTableInsertRN9benchmark5StateE
FNDA:24,_ZL15BM_HashTableGetRN9benchmark5StateE
FNDA:24,_ZL18BM_HashTableRemoveRN9benchmark5StateE
FNDA:24,_ZL18BM_HashTableInsertRN9benchmark5StateE
FNF:3
FNH:3
DA:5,24
DA:6,24
DA:7,24
DA:8,43753299
DA:9,1240588491
DA:10,1196835240
DA:13,24
DA:14,24
DA:18,24
DA:19,24
DA:20,24
DA:21,7914
DA:22,7890
DA:25,33469808
DA:26,938390530
DA:27,904920770
DA:30,24
DA:31,24
DA:35,24
DA:36,24
DA:37,24
DA:38,7914
DA:39,7890
DA:42,52625961
DA:43,1495543413
DA:44,1442917500
DA:47,24
DA:48,24
LF:28
LH:28
end_of_record
TN:
SF:/home/Vlad/Documents/VC Code/SecondSemestr/Lab_3/tests/hashtable_test.cpp
FN:16,16,_ZN30HashTableTest_UpdateValue_Test8TestBodyEv
FN:16,16,_ZN30HashTableTest_UpdateValue_TestC2Ev
FN:16,16,_ZN30HashTableTest_UpdateValue_TestD0Ev
FN:16,16,_ZN30HashTableTest_UpdateValue_TestD2Ev
FN:26,26,_ZN32HashTableTest_RemoveElement_Test8TestBodyEv
FN:26,26,_ZN32HashTableTest_RemoveElement_TestC2Ev
FN:26,26,_ZN32HashTableTest_RemoveElement_TestD0Ev
FN:26,26,_ZN32HashTableTest_RemoveElement_TestD2Ev
FN:41,41,_ZN38HashTableTest_SaveAndLoadFromFile_Test8TestBodyEv
FN:41,41,_ZN38HashTableTest_SaveAndLoadFromFile_TestC2Ev
FN:41,41,_ZN38HashTableTest_SaveAndLoadFromFile_TestD0Ev
FN:41,41,_ZN38HashTableTest_SaveAndLoadFromFile_TestD2Ev
FN:5,5,_ZN31HashTableTest_InsertAndGet_Test8TestBodyEv
FN:5,5,_ZN31HashTableTest_InsertAndGet_TestC2Ev
FN:5,5,_ZN31HashTableTest_InsertAndGet_TestD0Ev
FN:5,5,_ZN31HashTableTest_InsertAndGet_TestD2Ev
FN:56,56,_ZN35HashTableTest_HandleCollisions_Test8TestBodyEv
FN:56,56,_ZN35HashTableTest_HandleCollisions_TestC2Ev
FN:56,56,_ZN35HashTableTest_HandleCollisions_TestD0Ev
FN:56,56,_ZN35HashTableTest_HandleCollisions_TestD2Ev
FN:67,67,_ZN29LinkedListTest_TestPrint_Test8TestBodyEv
FN:67,67,_ZN29LinkedListTest_TestPrint_TestC2Ev
FN:67,67,_ZN29LinkedListTest_TestPrint_TestD0Ev
FN:67,67,_ZN29LinkedListTest_TestPrint_TestD2Ev
FN:95,126,_ZN28HashTableTest_TestPrint_Test8TestBodyEv
FN:95,126,_ZN28HashTableTest_TestPrint_TestC2Ev
FN:95,126,_ZN28HashTableTest_TestPrint_TestD0Ev
FN:95,126,_ZN28HashTableTest_TestPrint_TestD2Ev
FNDA:1,_ZN30HashTableTest_UpdateValue_Test8TestBodyEv
FNDA:1,_ZN30HashTableTest_UpdateValue_TestC2Ev
FNDA:1,_ZN30HashTableTest_UpdateValue_TestD0Ev
FNDA:1,_ZN30HashTableTest_UpdateValue_TestD2Ev
FNDA:1,_ZN32HashTableTest_RemoveElement_Test8TestBodyEv
FNDA:1,_ZN32HashTableTest_RemoveElement_TestC2Ev
FNDA:1,_ZN32HashTableTest_RemoveElement_TestD0Ev
FNDA:1,_ZN32HashTableTest_RemoveElement_TestD2Ev
FNDA:1,_ZN38HashTableTest_SaveAndLoadFromFile_Test8TestBodyEv
FNDA:1,_ZN38HashTableTest_SaveAndLoadFromFile_TestC2Ev
FNDA:1,_ZN38HashTableTest_SaveAndLoadFromFile_TestD0Ev
FNDA:1,_ZN38HashTableTest_SaveAndLoadFromFile_TestD2Ev
FNDA:1,_ZN31HashTableTest_InsertAndGet_Test8TestBodyEv
FNDA:1,_ZN31HashTableTest_InsertAndGet_TestC2Ev
FNDA:1,_ZN31HashTableTest_InsertAndGet_TestD0Ev
FNDA:1,_ZN31HashTableTest_InsertAndGet_TestD2Ev
FNDA:1,_ZN35HashTableTest_HandleCollisions_Test8TestBodyEv
FNDA:1,_ZN35HashTableTest_HandleCollisions_TestC2Ev
FNDA:1,_ZN35HashTableTest_HandleCollisions_TestD0Ev
FNDA:1,_ZN35HashTableTest_HandleCollisions_TestD2Ev
FNDA:1,_ZN29LinkedListTest_TestPrint_Test8TestBodyEv
FNDA:1,_ZN29LinkedListTest_TestPrint_TestC2Ev
FNDA:1,_ZN29LinkedListTest_TestPrint_TestD0Ev
FNDA:1,_ZN29LinkedListTest_TestPrint_TestD2Ev
FNDA:1,_ZN28HashTableTest_TestPrint_Test8TestBodyEv
FNDA:1,_ZN28HashTableTest_TestPrint_TestC2Ev
FNDA:1,_ZN28HashTableTest_TestPrint_TestD0Ev
FNDA:1,_ZN28HashTableTest_TestPrint_TestD2Ev
FNF:28
FNH:28
DA:5,4
DA:6,1
DA:8,2
DA:9,1
DA:11,1
DA:12,1
DA:13,1
DA:16,4
DA:17,1
DA:19,2
DA:20,2
DA:22,3
DA:23,1
DA:26,4
DA:27,1
DA:29,2
DA:30,2
DA:31,3
DA:32,2
DA:33,1
DA:36,3
DA:37,1
DA:38,1
DA:41,4
DA:42,1
DA:43,2
DA:44,3
DA:46,1
DA:48,1
DA:49,1
DA:51,3
DA:52,3
DA:53,1
DA:56,4
DA:57,1
DA:59,1
DA:60,1
DA:62,1
DA:63,1
DA:64,1
DA:67,4
DA:69,1
DA:72,2
DA:73,2
DA:74,1
DA:77,1
DA:78,1
DA:80,1
DA:83,1
DA:86,1
DA:87,1
DA:90,1
DA:91,1
DA:92,1
DA:93,1
DA:95,4
DA:97,1
DA:100,2
DA:101,2
DA:102,1
DA:105,1
DA:106,1
DA:108,1
DA:111,1
DA:114,1
DA:115,1
DA:118,6
DA:119,5
DA:120,5
DA:121,5
DA:122,5
DA:125,1
DA:126,1
LF:73
LH:73
end_of_record
TN:
SF:/home/Vlad/Documents/VC Code/SecondSemestr/Lab_3/tests/list_benchmark.cpp
FN:16,25,_ZL27BM_SinglyLinkedListPushBackRN9benchmark5StateE
FN:28,41,_ZL23BM_SinglyLinkedListFindRN9benchmark5StateE
FN:4,13,_ZL28BM_SinglyLinkedListPushFrontRN9benchmark5StateE
FN:44,57,_ZL27BM_SinglyLinkedListPopFrontRN9benchmark5StateE
FNDA:18,_ZL27BM_SinglyLinkedListPushBackRN9benchmark5StateE
FNDA:18,_ZL23BM_SinglyLinkedListFindRN9benchmark5StateE
FNDA:21,_ZL28BM_SinglyLinkedListPushFrontRN9benchmark5StateE
FNDA:18,_ZL27BM_SinglyLinkedListPopFrontRN9benchmark5StateE
FNF:4
FNH:4
DA:4,21
DA:5,21
DA:6,3216115
DA:7,3216073
DA:8,88541063
DA:9,85324990
DA:12,21
DA:13,21
DA:16,18
DA:17,18
DA:18,2839810
DA:19,2839774
DA:20,39941234
DA:21,37101460
DA:23,2839774
DA:24,18
DA:25,18
DA:28,18
DA:29,18
DA:30,2827597
DA:31,2827561
DA:32,39730031
DA:33,36902470
DA:36,2827561
DA:40,18
DA:41,18
DA:44,18
DA:45,18
DA:46,2835389
DA:47,2835353
DA:48,39707923
DA:49,36872570
DA:52,39707923
DA:53,36872570
DA:56,18
DA:57,18
LF:36
LH:36
end_of_record
TN:
SF:/home/Vlad/Documents/VC Code/SecondSemestr/Lab_3/tests/list_test.cpp
FN:111,126,_ZN33SinglyLinkedListTest_GetSize_Test8TestBodyEv
FN:111,126,_ZN33SinglyLinkedListTest_GetSize_TestC2Ev
FN:111,126,_ZN33SinglyLinkedListTest_GetSize_TestD0Ev
FN:111,126,_ZN33SinglyLinkedListTest_GetSize_TestD2Ev
FN:129,129,_ZN31SinglyLinkedListTest_Print_Test8TestBodyEv
FN:129,129,_ZN31SinglyLinkedListTest_Print_TestC2Ev
FN:129,129,_ZN31SinglyLinkedListTest_Print_TestD0Ev
FN:129,129,_ZN31SinglyLinkedListTest_Print_TestD2Ev
FN:19,19,_ZN34SinglyLinkedListTest_PushBack_Test8TestBodyEv
FN:19,19,_ZN34SinglyLinkedListTest_PushBack_TestC2Ev
FN:19,19,_ZN34SinglyLinkedListTest_PushBack_TestD0Ev
FN:19,19,_ZN34SinglyLinkedListTest_PushBack_TestD2Ev
FN:31,31,_ZN34SinglyLinkedListTest_PopFront_Test8TestBodyEv
FN:31,31,_ZN34SinglyLinkedListTest_PopFront_TestC2Ev
FN:31,31,_ZN34SinglyLinkedListTest_PopFront_TestD0Ev
FN:31,31,_ZN34SinglyLinkedListTest_PopFront_TestD2Ev
FN:47,47,_ZN33SinglyLinkedListTest_PopBack_Test8TestBodyEv
FN:47,47,_ZN33SinglyLinkedListTest_PopBack_TestC2Ev
FN:47,47,_ZN33SinglyLinkedListTest_PopBack_TestD0Ev
FN:47,47,_ZN33SinglyLinkedListTest_PopBack_TestD2Ev
FN:6,6,_ZN35SinglyLinkedListTest_PushFront_Test8TestBodyEv
FN:6,6,_ZN35SinglyLinkedListTest_PushFront_TestC2Ev
FN:6,6,_ZN35SinglyLinkedListTest_PushFront_TestD0Ev
FN:6,6,_ZN35SinglyLinkedListTest_PushFront_TestD2Ev
FN:63,63,_ZN32SinglyLinkedListTest_Remove_Test8TestBodyEv
FN:63,63,_ZN32SinglyLinkedListTest_Remove_TestC2Ev
FN:63,63,_ZN32SinglyLinkedListTest_Remove_TestD0Ev
FN:63,63,_ZN32SinglyLinkedListTest_Remove_TestD2Ev
FN:84,84,_ZN30SinglyLinkedListTest_Find_Test8TestBodyEv
FN:84,84,_ZN30SinglyLinkedListTest_Find_TestC2Ev
FN:84,84,_ZN30SinglyLinkedListTest_Find_TestD0Ev
FN:84,84,_ZN30SinglyLinkedListTest_Find_TestD2Ev
FN:96,96,_ZN45SinglyLinkedListTest_SaveAndLoadFromFile_Test8TestBodyEv
FN:96,96,_ZN45SinglyLinkedListTest_SaveAndLoadFromFile_TestC2Ev
FN:96,96,_ZN45SinglyLinkedListTest_SaveAndLoadFromFile_TestD0Ev
FN:96,96,_ZN45SinglyLinkedListTest_SaveAndLoadFromFile_TestD2Ev
FNDA:1,_ZN33SinglyLinkedListTest_GetSize_Test8TestBodyEv
FNDA:1,_ZN33SinglyLinkedListTest_GetSize_TestC2Ev
FNDA:1,_ZN33SinglyLinkedListTest_GetSize_TestD0Ev
FNDA:1,_ZN33SinglyLinkedListTest_GetSize_TestD2Ev
FNDA:1,_ZN31SinglyLinkedListTest_Print_Test8TestBodyEv
FNDA:1,_ZN31SinglyLinkedListTest_Print_TestC2Ev
FNDA:1,_ZN31SinglyLinkedListTest_Print_TestD0Ev
FNDA:1,_ZN31SinglyLinkedListTest_Print_TestD2Ev
FNDA:1,_ZN34SinglyLinkedListTest_PushBack_Test8TestBodyEv
FNDA:1,_ZN34SinglyLinkedListTest_PushBack_TestC2Ev
FNDA:1,_ZN34SinglyLinkedListTest_PushBack_TestD0Ev
FNDA:1,_ZN34SinglyLinkedListTest_PushBack_TestD2Ev
FNDA:1,_ZN34SinglyLinkedListTest_PopFront_Test8TestBodyEv
FNDA:1,_ZN34SinglyLinkedListTest_PopFront_TestC2Ev
FNDA:1,_ZN34SinglyLinkedListTest_PopFront_TestD0Ev
FNDA:1,_ZN34SinglyLinkedListTest_PopFront_TestD2Ev
FNDA:1,_ZN33SinglyLinkedListTest_PopBack_Test8TestBodyEv
FNDA:1,_ZN33SinglyLinkedListTest_PopBack_TestC2Ev
FNDA:1,_ZN33SinglyLinkedListTest_PopBack_TestD0Ev
FNDA:1,_ZN33SinglyLinkedListTest_PopBack_TestD2Ev
FNDA:1,_ZN35SinglyLinkedListTest_PushFront_Test8TestBodyEv
FNDA:1,_ZN35SinglyLinkedListTest_PushFront_TestC2Ev
FNDA:1,_ZN35SinglyLinkedListTest_PushFront_TestD0Ev
FNDA:1,_ZN35SinglyLinkedListTest_PushFront_TestD2Ev
FNDA:1,_ZN32SinglyLinkedListTest_Remove_Test8TestBodyEv
FNDA:1,_ZN32SinglyLinkedListTest_Remove_TestC2Ev
FNDA:1,_ZN32SinglyLinkedListTest_Remove_TestD0Ev
FNDA:1,_ZN32SinglyLinkedListTest_Remove_TestD2Ev
FNDA:1,_ZN30SinglyLinkedListTest_Find_Test8TestBodyEv
FNDA:1,_ZN30SinglyLinkedListTest_Find_TestC2Ev
FNDA:1,_ZN30SinglyLinkedListTest_Find_TestD0Ev
FNDA:1,_ZN30SinglyLinkedListTest_Find_TestD2Ev
FNDA:1,_ZN45SinglyLinkedListTest_SaveAndLoadFromFile_Test8TestBodyEv
FNDA:1,_ZN45SinglyLinkedListTest_SaveAndLoadFromFile_TestC2Ev
FNDA:1,_ZN45SinglyLinkedListTest_SaveAndLoadFromFile_TestD0Ev
FNDA:1,_ZN45SinglyLinkedListTest_SaveAndLoadFromFile_TestD2Ev
FNF:36
FNH:36
DA:6,4
DA:7,1
DA:8,1
DA:9,1
DA:10,1
DA:12,1
DA:13,1
DA:14,1
DA:15,1
DA:16,1
DA:19,4
DA:20,1
DA:21,1
DA:22,1
DA:23,1
DA:25,1
DA:26,1
DA:27,1
DA:28,1
DA:31,4
DA:32,1
DA:33,1
DA:34,1
DA:35,1
DA:36,1
DA:37,1
DA:39,1
DA:40,1
DA:41,1
DA:43,1
DA:44,1
DA:47,4
DA:48,1
DA:49,1
DA:50,1
DA:51,1
DA:52,1
DA:53,1
DA:55,1
DA:56,1
DA:57,1
DA:59,1
DA:60,1
DA:63,4
DA:64,1
DA:65,1
DA:66,1
DA:67,1
DA:68,1
DA:69,1
DA:70,1
DA:71,1
DA:72,1
DA:74,1
DA:75,1
DA:76,1
DA:77,1
DA:79,1
DA:80,1
DA:81,1
DA:84,4
DA:85,1
DA:86,1
DA:87,1
DA:88,1
DA:89,1
DA:90,1
DA:91,1
DA:92,1
DA:93,1
DA:96,4
DA:97,1
DA:98,1
DA:99,1
DA:100,1
DA:102,1
DA:103,1
DA:105,1
DA:106,1
DA:107,1
DA:108,1
DA:111,4
DA:112,1
DA:113,1
DA:115,1
DA:116,1
DA:118,1
DA:119,1
DA:121,1
DA:122,1
DA:124,1
DA:125,1
DA:126,1
DA:129,4
DA:130,1
DA:131,1
DA:132,1
DA:135,1
DA:136,1
LF:99
LH:99
end_of_record
TN:
SF:/home/Vlad/Documents/VC Code/SecondSemestr/Lab_3/tests/queue_benchmark.cpp
FN:14,27,_ZL11BM_QueuePopRN9benchmark5StateE
FN:30,43,_ZL20BM_QueueLoadFromFileRN9benchmark5StateE
FN:4,11,_ZL12BM_QueuePushRN9benchmark5StateE
FN:46,57,_ZL18BM_QueueSaveToFileRN9benchmark5StateE
FNDA:21,_ZL11BM_QueuePopRN9benchmark5StateE
FNDA:17,_ZL20BM_QueueLoadFromFileRN9benchmark5StateE
FNDA:27,_ZL12BM_QueuePushRN9benchmark5StateE
FNDA:15,_ZL18BM_QueueSaveToFileRN9benchmark5StateE
FNF:4
FNH:4
DA:4,27
DA:5,27
DA:6,117011227
DA:7,117011173
DA:9,27
DA:10,81
DA:11,27
DA:14,21
DA:15,21
DA:16,21
DA:17,3164183
DA:18,87909871
DA:19,84745730
DA:21,87909871
DA:22,84745730
DA:25,21
DA:26,84
DA:27,21
DA:30,17
DA:31,17
DA:32,17
DA:33,5677
DA:34,5660
DA:36,17
DA:38,163272
DA:39,163238
DA:40,326476
DA:41,163238
DA:42,17
DA:43,17
DA:46,15
DA:47,15
DA:48,15
DA:49,5565
DA:50,5550
DA:53,20634
DA:54,41208
DA:56,15
DA:57,15
LF:39
LH:39
end_of_record
TN:
SF:/home/Vlad/Documents/VC Code/SecondSemestr/Lab_3/tests/queue_test.cpp
FN:15,15,_ZN18QueueTest_Pop_Test8TestBodyEv
FN:15,15,_ZN18QueueTest_Pop_TestC2Ev
FN:15,15,_ZN18QueueTest_Pop_TestD0Ev
FN:15,15,_ZN18QueueTest_Pop_TestD2Ev
FN:23,23,_ZN23QueueTest_EmptyPop_Test8TestBodyEv
FN:23,23,_ZN23QueueTest_EmptyPop_TestC2Ev
FN:23,23,_ZN23QueueTest_EmptyPop_TestD0Ev
FN:23,23,_ZN23QueueTest_EmptyPop_TestD2Ev
FN:28,28,_ZN32QueueTest_FrontValueOnEmpty_Test8TestBodyEv
FN:28,28,_ZN32QueueTest_FrontValueOnEmpty_TestC2Ev
FN:28,28,_ZN32QueueTest_FrontValueOnEmpty_TestD0Ev
FN:28,28,_ZN32QueueTest_FrontValueOnEmpty_TestD2Ev
FN:33,33,_ZN22QueueTest_GetSize_Test8TestBodyEv
FN:33,33,_ZN22QueueTest_GetSize_TestC2Ev
FN:33,33,_ZN22QueueTest_GetSize_TestD0Ev
FN:33,33,_ZN22QueueTest_GetSize_TestD2Ev
FN:44,44,_ZN34QueueTest_SaveAndLoadFromFile_Test8TestBodyEv
FN:44,44,_ZN34QueueTest_SaveAndLoadFromFile_TestC2Ev
FN:44,44,_ZN34QueueTest_SaveAndLoadFromFile_TestD0Ev
FN:44,44,_ZN34QueueTest_SaveAndLoadFromFile_TestD2Ev
FN:58,81,_ZN24QueueTest_TestPrint_Test8TestBodyEv
FN:58,81,_ZN24QueueTest_TestPrint_TestC2Ev
FN:58,81,_ZN24QueueTest_TestPrint_TestD0Ev
FN:58,81,_ZN24QueueTest_TestPrint_TestD2Ev
FN:7,7,_ZN32QueueTest_PushAndFrontValue_Test8TestBodyEv
FN:7,7,_ZN32QueueTest_PushAndFrontValue_TestC2Ev
FN:7,7,_ZN32QueueTest_PushAndFrontValue_TestD0Ev
FN:7,7,_ZN32QueueTest_PushAndFrontValue_TestD2Ev
FNDA:1,_ZN18QueueTest_Pop_Test8TestBodyEv
FNDA:1,_ZN18QueueTest_Pop_TestC2Ev
FNDA:1,_ZN18QueueTest_Pop_TestD0Ev
FNDA:1,_ZN18QueueTest_Pop_TestD2Ev
FNDA:1,_ZN23QueueTest_EmptyPop_Test8TestBodyEv
FNDA:1,_ZN23QueueTest_EmptyPop_TestC2Ev
FNDA:1,_ZN23QueueTest_EmptyPop_TestD0Ev
FNDA:1,_ZN23QueueTest_EmptyPop_TestD2Ev
FNDA:1,_ZN32QueueTest_FrontValueOnEmpty_Test8TestBodyEv
FNDA:1,_ZN32QueueTest_FrontValueOnEmpty_TestC2Ev
FNDA:1,_ZN32QueueTest_FrontValueOnEmpty_TestD0Ev
FNDA:1,_ZN32QueueTest_FrontValueOnEmpty_TestD2Ev
FNDA:1,_ZN22QueueTest_GetSize_Test8TestBodyEv
FNDA:1,_ZN22QueueTest_GetSize_TestC2Ev
FNDA:1,_ZN22QueueTest_GetSize_TestD0Ev
FNDA:1,_ZN22QueueTest_GetSize_TestD2Ev
FNDA:1,_ZN34QueueTest_SaveAndLoadFromFile_Test8TestBodyEv
FNDA:1,_ZN34QueueTest_SaveAndLoadFromFile_TestC2Ev
FNDA:1,_ZN34QueueTest_SaveAndLoadFromFile_TestD0Ev
FNDA:1,_ZN34QueueTest_SaveAndLoadFromFile_TestD2Ev
FNDA:1,_ZN24QueueTest_TestPrint_Test8TestBodyEv
FNDA:1,_ZN24QueueTest_TestPrint_TestC2Ev
FNDA:1,_ZN24QueueTest_TestPrint_TestD0Ev
FNDA:1,_ZN24QueueTest_TestPrint_TestD2Ev
FNDA:1,_ZN32QueueTest_PushAndFrontValue_Test8TestBodyEv
FNDA:1,_ZN32QueueTest_PushAndFrontValue_TestC2Ev
FNDA:1,_ZN32QueueTest_PushAndFrontValue_TestD0Ev
FNDA:1,_ZN32QueueTest_PushAndFrontValue_TestD2Ev
FNF:28
FNH:28
DA:7,4
DA:8,1
DA:9,1
DA:10,1
DA:11,1
DA:12,1
DA:13,1
DA:15,4
DA:16,1
DA:17,1
DA:18,1
DA:19,1
DA:20,1
DA:21,1
DA:23,4
DA:24,1
DA:25,1
DA:26,1
DA:28,4
DA:29,1
DA:30,1
DA:31,1
DA:33,4
DA:34,1
DA:35,1
DA:36,1
DA:37,1
DA:38,1
DA:39,1
DA:40,1
DA:41,1
DA:42,1
DA:44,4
DA:45,1
DA:46,1
DA:47,1
DA:48,1
DA:50,1
DA:51,1
DA:52,1
DA:53,1
DA:54,1
DA:55,1
DA:56,1
DA:58,4
DA:60,1
DA:63,1
DA:64,1
DA:67,1
DA:68,1
DA:70,1
DA:73,1
DA:76,1
DA:79,1
DA:80,1
DA:81,1
LF:56
LH:56
end_of_record
TN:
SF:/home/Vlad/Documents/VC Code/SecondSemestr/Lab_3/tests/stack_benchmark.cpp
FN:16,28,_ZL11BM_StackPopRN9benchmark5StateE
FN:31,38,_ZL12BM_StackPeekRN9benchmark5StateE
FN:4,13,_ZL12BM_StackPushRN9benchmark5StateE
FNDA:21,_ZL11BM_StackPopRN9benchmark5StateE
FNDA:30,_ZL12BM_StackPeekRN9benchmark5StateE
FNDA:21,_ZL12BM_StackPushRN9benchmark5StateE
FNF:3
FNH:3
DA:4,21
DA:5,21
DA:6,3172703
DA:7,3172661
DA:8,88012591
DA:9,84839930
DA:12,21
DA:13,21
DA:16,21
DA:17,21
DA:18,3160557
DA:19,3160515
DA:20,87640215
DA:21,84479700
DA:23,87640215
DA:24,84479700
DA:27,21
DA:28,21
DA:31,30
DA:32,30
DA:33,30
DA:34,1473505092
DA:35,1473505032
DA:37,30
DA:38,30
LF:25
LH:25
end_of_record
TN:
SF:/home/Vlad/Documents/VC Code/SecondSemestr/Lab_3/tests/stack_test.cpp
FN:13,13,_ZN26StackTest_PushAndSize_Test8TestBodyEv
FN:13,13,_ZN26StackTest_PushAndSize_TestC2Ev
FN:13,13,_ZN26StackTest_PushAndSize_TestD0Ev
FN:13,13,_ZN26StackTest_PushAndSize_TestD2Ev
FN:21,21,_ZN18StackTest_Pop_Test8TestBodyEv
FN:21,21,_ZN18StackTest_Pop_TestC2Ev
FN:21,21,_ZN18StackTest_Pop_TestD0Ev
FN:21,21,_ZN18StackTest_Pop_TestD2Ev
FN:31,31,_ZN23StackTest_PopEmpty_Test8TestBodyEv
FN:31,31,_ZN23StackTest_PopEmpty_TestC2Ev
FN:31,31,_ZN23StackTest_PopEmpty_TestD0Ev
FN:31,31,_ZN23StackTest_PopEmpty_TestD2Ev
FN:37,37,_ZN19StackTest_Peek_Test8TestBodyEv
FN:37,37,_ZN19StackTest_Peek_TestC2Ev
FN:37,37,_ZN19StackTest_Peek_TestD0Ev
FN:37,37,_ZN19StackTest_Peek_TestD2Ev
FN:44,44,_ZN24StackTest_PeekEmpty_Test8TestBodyEv
FN:44,44,_ZN24StackTest_PeekEmpty_TestC2Ev
FN:44,44,_ZN24StackTest_PeekEmpty_TestD0Ev
FN:44,44,_ZN24StackTest_PeekEmpty_TestD2Ev
FN:50,50,_ZN27StackTest_LoadFromFile_Test8TestBodyEv
FN:50,50,_ZN27StackTest_LoadFromFile_TestC2Ev
FN:50,50,_ZN27StackTest_LoadFromFile_TestD0Ev
FN:50,50,_ZN27StackTest_LoadFromFile_TestD2Ev
FN:62,62,_ZN25StackTest_SaveToFile_Test8TestBodyEv
FN:62,62,_ZN25StackTest_SaveToFile_TestC2Ev
FN:62,62,_ZN25StackTest_SaveToFile_TestD0Ev
FN:62,62,_ZN25StackTest_SaveToFile_TestD2Ev
FN:7,7,_ZN26StackTest_Constructor_Test8TestBodyEv
FN:7,7,_ZN26StackTest_Constructor_TestC2Ev
FN:7,7,_ZN26StackTest_Constructor_TestD0Ev
FN:7,7,_ZN26StackTest_Constructor_TestD2Ev
FN:77,85,_ZN23StackTest_Overflow_Test8TestBodyEv
FN:77,85,_ZN23StackTest_Overflow_TestC2Ev
FN:77,85,_ZN23StackTest_Overflow_TestD0Ev
FN:77,85,_ZN23StackTest_Overflow_TestD2Ev
FN:87,110,_ZN24StackTest_TestPrint_Test8TestBodyEv
FN:87,110,_ZN24StackTest_TestPrint_TestC2Ev
FN:87,110,_ZN24StackTest_TestPrint_TestD0Ev
FN:87,110,_ZN24StackTest_TestPrint_TestD2Ev
FNDA:1,_ZN26StackTest_PushAndSize_Test8TestBodyEv
FNDA:1,_ZN26StackTest_PushAndSize_TestC2Ev
FNDA:1,_ZN26StackTest_PushAndSize_TestD0Ev
FNDA:1,_ZN26StackTest_PushAndSize_TestD2Ev
FNDA:1,_ZN18StackTest_Pop_Test8TestBodyEv
FNDA:1,_ZN18StackTest_Pop_TestC2Ev
FNDA:1,_ZN18StackTest_Pop_TestD0Ev
FNDA:1,_ZN18StackTest_Pop_TestD2Ev
FNDA:1,_ZN23StackTest_PopEmpty_Test8TestBodyEv
FNDA:1,_ZN23StackTest_PopEmpty_TestC2Ev
FNDA:1,_ZN23StackTest_PopEmpty_TestD0Ev
FNDA:1,_ZN23StackTest_PopEmpty_TestD2Ev
FNDA:1,_ZN19StackTest_Peek_Test8TestBodyEv
FNDA:1,_ZN19StackTest_Peek_TestC2Ev
FNDA:1,_ZN19StackTest_Peek_TestD0Ev
FNDA:1,_ZN19StackTest_Peek_TestD2Ev
FNDA:1,_ZN24StackTest_PeekEmpty_Test8TestBodyEv
FNDA:1,_ZN24StackTest_PeekEmpty_TestC2Ev
FNDA:1,_ZN24StackTest_PeekEmpty_TestD0Ev
FNDA:1,_ZN24StackTest_PeekEmpty_TestD2Ev
FNDA:1,_ZN27StackTest_LoadFromFile_Test8TestBodyEv
FNDA:1,_ZN27StackTest_LoadFromFile_TestC2Ev
FNDA:1,_ZN27StackTest_LoadFromFile_TestD0Ev
FNDA:1,_ZN27StackTest_LoadFromFile_TestD2Ev
FNDA:1,_ZN25StackTest_SaveToFile_Test8TestBodyEv
FNDA:1,_ZN25StackTest_SaveToFile_TestC2Ev
FNDA:1,_ZN25StackTest_SaveToFile_TestD0Ev
FNDA:1,_ZN25StackTest_SaveToFile_TestD2Ev
FNDA:1,_ZN26StackTest_Constructor_Test8TestBodyEv
FNDA:1,_ZN26StackTest_Constructor_TestC2Ev
FNDA:1,_ZN26StackTest_Constructor_TestD0Ev
FNDA:1,_ZN26StackTest_Constructor_TestD2Ev
FNDA:1,_ZN23StackTest_Overflow_Test8TestBodyEv
FNDA:1,_ZN23StackTest_Overflow_TestC2Ev
FNDA:1,_ZN23StackTest_Overflow_TestD0Ev
FNDA:1,_ZN23StackTest_Overflow_TestD2Ev
FNDA:1,_ZN24StackTest_TestPrint_Test8TestBodyEv
FNDA:1,_ZN24StackTest_TestPrint_TestC2Ev
FNDA:1,_ZN24StackTest_TestPrint_TestD0Ev
FNDA:1,_ZN24StackTest_TestPrint_TestD2Ev
FNF:40
FNH:40
DA:7,4
DA:8,1
DA:9,1
DA:10,1
DA:13,4
DA:14,1
DA:15,1
DA:16,1
DA:17,1
DA:18,1
DA:21,4
DA:22,1
DA:23,1
DA:24,1
DA:25,1
DA:26,1
DA:27,1
DA:28,1
DA:31,4
DA:32,1
DA:33,1
DA:34,1
DA:37,4
DA:38,1
DA:39,1
DA:40,1
DA:41,1
DA:44,4
DA:45,1
DA:46,1
DA:47,1
DA:50,4
DA:51,1
DA:52,1
DA:53,1
DA:54,1
DA:56,1
DA:57,1
DA:58,1
DA:59,1
DA:62,4
DA:63,1
DA:64,1
DA:65,1
DA:66,1
DA:68,1
DA:69,1
DA:70,1
DA:71,1
DA:72,1
DA:74,1
DA:75,1
DA:77,4
DA:78,1
DA:79,1
DA:80,1
DA:81,1
DA:82,1
DA:83,1
DA:84,1
DA:85,1
DA:87,4
DA:89,1
DA:92,1
DA:93,1
DA:96,1
DA:97,1
DA:99,1
DA:102,1
DA:105,1
DA:108,1
DA:109,1
DA:110,1
LF:73
LH:73
end_of_record
TN:
SF:/home/Vlad/Documents/VC Code/SecondSemestr/Lab_3/tests/tree_benchmark.cpp
FN:17,30,_ZL25BM_CompleteBinaryTreeFindRN9benchmark5StateE
FN:33,48,_ZL27BM_CompleteBinaryTreeRemoveRN9benchmark5StateE
FN:5,14,_ZL24BM_CompleteBinaryTreeAddRN9benchmark5StateE
FNDA:18,_ZL25BM_CompleteBinaryTreeFindRN9benchmark5StateE
FNDA:27,_ZL27BM_CompleteBinaryTreeRemoveRN9benchmark5StateE
FNDA:9,_ZL24BM_CompleteBinaryTreeAddRN9benchmark5StateE
FNF:3
FNH:3
DA:5,9
DA:6,9
DA:7,9
DA:8,1251
DA:9,34443
DA:10,33210
DA:13,9
DA:14,9
DA:17,18
DA:18,18
DA:19,18
DA:20,4698
DA:21,4680
DA:24,8726564
DA:25,106652668
DA:26,97926140
DA:29,18
DA:30,18
DA:33,27
DA:34,27
DA:35,27
DA:36,9027
DA:37,9000
DA:40,386446937
DA:41,14450634343
DA:42,14064187460
DA:43,9000
DA:47,27
DA:48,27
LF:29
LH:29
end_of_record
TN:
SF:/home/Vlad/Documents/VC Code/SecondSemestr/Lab_3/tests/tree_test.cpp
FN:100,100,_ZN46CompleteBinaryTreeTest_IsCompleteTreeTest_Test8TestBodyEv
FN:100,100,_ZN46CompleteBinaryTreeTest_IsCompleteTreeTest_TestC2Ev
FN:100,100,_ZN46CompleteBinaryTreeTest_IsCompleteTreeTest_TestD0Ev
FN:100,100,_ZN46CompleteBinaryTreeTest_IsCompleteTreeTest_TestD2Ev
FN:115,115,_ZN48CompleteBinaryTreeTest_RemoveSingleNodeTest_Test8TestBodyEv
FN:115,115,_ZN48CompleteBinaryTreeTest_RemoveSingleNodeTest_TestC2Ev
FN:115,115,_ZN48CompleteBinaryTreeTest_RemoveSingleNodeTest_TestD0Ev
FN:115,115,_ZN48CompleteBinaryTreeTest_RemoveSingleNodeTest_TestD2Ev
FN:124,124,_ZN53CompleteBinaryTreeTest_RemoveNonExistentNodeTest_Test8TestBodyEv
FN:124,124,_ZN53CompleteBinaryTreeTest_RemoveNonExistentNodeTest_TestC2Ev
FN:124,124,_ZN53CompleteBinaryTreeTest_RemoveNonExistentNodeTest_TestD0Ev
FN:124,124,_ZN53CompleteBinaryTreeTest_RemoveNonExistentNodeTest_TestD2Ev
FN:132,132,_ZN40CompleteBinaryTreeTest_LoadSaveTest_Test8TestBodyEv
FN:132,132,_ZN40CompleteBinaryTreeTest_LoadSaveTest_TestC2Ev
FN:132,132,_ZN40CompleteBinaryTreeTest_LoadSaveTest_TestD0Ev
FN:132,132,_ZN40CompleteBinaryTreeTest_LoadSaveTest_TestD2Ev
FN:149,149,_ZN45CompleteBinaryTreeTest_LoadEmptyFileTest_Test8TestBodyEv
FN:149,149,_ZN45CompleteBinaryTreeTest_LoadEmptyFileTest_TestC2Ev
FN:149,149,_ZN45CompleteBinaryTreeTest_LoadEmptyFileTest_TestD0Ev
FN:149,149,_ZN45CompleteBinaryTreeTest_LoadEmptyFileTest_TestD2Ev
FN:155,155,_ZN57CompleteBinaryTreeTest_IsCompleteTreeWithOneNodeTest_Test8TestBodyEv
FN:155,155,_ZN57CompleteBinaryTreeTest_IsCompleteTreeWithOneNodeTest_TestC2Ev
FN:155,155,_ZN57CompleteBinaryTreeTest_IsCompleteTreeWithOneNodeTest_TestD0Ev
FN:155,155,_ZN57CompleteBinaryTreeTest_IsCompleteTreeWithOneNodeTest_TestD2Ev
FN:162,172,_ZN49CompleteBinaryTreeTest_AddToCompleteTreeTest_Test8TestBodyEv
FN:162,172,_ZN49CompleteBinaryTreeTest_AddToCompleteTreeTest_TestC2Ev
FN:162,172,_ZN49CompleteBinaryTreeTest_AddToCompleteTreeTest_TestD0Ev
FN:162,172,_ZN49CompleteBinaryTreeTest_AddToCompleteTreeTest_TestD2Ev
FN:174,174,_ZN51CompleteBinaryTreeTest_FindNonExistentNodeTest_Test8TestBodyEv
FN:174,174,_ZN51CompleteBinaryTreeTest_FindNonExistentNodeTest_TestC2Ev
FN:174,174,_ZN51CompleteBinaryTreeTest_FindNonExistentNodeTest_TestD0Ev
FN:174,174,_ZN51CompleteBinaryTreeTest_FindNonExistentNodeTest_TestD2Ev
FN:182,190,_ZN51CompleteBinaryTreeTest_AddMultipleElementsTest_Test8TestBodyEv
FN:182,190,_ZN51CompleteBinaryTreeTest_AddMultipleElementsTest_TestC2Ev
FN:182,190,_ZN51CompleteBinaryTreeTest_AddMultipleElementsTest_TestD0Ev
FN:182,190,_ZN51CompleteBinaryTreeTest_AddMultipleElementsTest_TestD2Ev
FN:193,193,_ZN37CompleteBinaryTreeTest_TestPrint_Test8TestBodyEv
FN:193,193,_ZN37CompleteBinaryTreeTest_TestPrint_TestC2Ev
FN:193,193,_ZN37CompleteBinaryTreeTest_TestPrint_TestD0Ev
FN:193,193,_ZN37CompleteBinaryTreeTest_TestPrint_TestD2Ev
FN:22,22,_ZN37Queue2Test_FrontOnEmptyQueueTest_Test8TestBodyEv
FN:22,22,_ZN37Queue2Test_FrontOnEmptyQueueTest_TestC2Ev
FN:22,22,_ZN37Queue2Test_FrontOnEmptyQueueTest_TestD0Ev
FN:22,22,_ZN37Queue2Test_FrontOnEmptyQueueTest_TestD2Ev
FN:28,28,_ZN35Queue2Test_PopOnEmptyQueueTest_Test8TestBodyEv
FN:28,28,_ZN35Queue2Test_PopOnEmptyQueueTest_TestC2Ev
FN:28,28,_ZN35Queue2Test_PopOnEmptyQueueTest_TestD0Ev
FN:28,28,_ZN35Queue2Test_PopOnEmptyQueueTest_TestD2Ev
FN:34,34,_ZN35Queue2Test_PushPopSequenceTest_Test8TestBodyEv
FN:34,34,_ZN35Queue2Test_PushPopSequenceTest_TestC2Ev
FN:34,34,_ZN35Queue2Test_PushPopSequenceTest_TestD0Ev
FN:34,34,_ZN35Queue2Test_PushPopSequenceTest_TestD2Ev
FN:51,64,_ZN27Queue2Test_PushPopTest_Test8TestBodyEv
FN:51,64,_ZN27Queue2Test_PushPopTest_TestC2Ev
FN:51,64,_ZN27Queue2Test_PushPopTest_TestD0Ev
FN:51,64,_ZN27Queue2Test_PushPopTest_TestD2Ev
FN:6,6,_ZN24Queue2Test_SizeTest_Test8TestBodyEv
FN:6,6,_ZN24Queue2Test_SizeTest_TestC2Ev
FN:6,6,_ZN24Queue2Test_SizeTest_TestD0Ev
FN:6,6,_ZN24Queue2Test_SizeTest_TestD2Ev
FN:66,66,_ZN30Queue2Test_EmptyQueueTest_Test8TestBodyEv
FN:66,66,_ZN30Queue2Test_EmptyQueueTest_TestC2Ev
FN:66,66,_ZN30Queue2Test_EmptyQueueTest_TestD0Ev
FN:66,66,_ZN30Queue2Test_EmptyQueueTest_TestD2Ev
FN:74,74,_ZN35CompleteBinaryTreeTest_AddTest_Test8TestBodyEv
FN:74,74,_ZN35CompleteBinaryTreeTest_AddTest_TestC2Ev
FN:74,74,_ZN35CompleteBinaryTreeTest_AddTest_TestD0Ev
FN:74,74,_ZN35CompleteBinaryTreeTest_AddTest_TestD2Ev
FN:87,87,_ZN38CompleteBinaryTreeTest_RemoveTest_Test8TestBodyEv
FN:87,87,_ZN38CompleteBinaryTreeTest_RemoveTest_TestC2Ev
FN:87,87,_ZN38CompleteBinaryTreeTest_RemoveTest_TestD0Ev
FN:87,87,_ZN38CompleteBinaryTreeTest_RemoveTest_TestD2Ev
FNDA:1,_ZN46CompleteBinaryTreeTest_IsCompleteTreeTest_Test8TestBodyEv
FNDA:1,_ZN46CompleteBinaryTreeTest_IsCompleteTreeTest_TestC2Ev
FNDA:1,_ZN46CompleteBinaryTreeTest_IsCompleteTreeTest_TestD0Ev
FNDA:1,_ZN46CompleteBinaryTreeTest_IsCompleteTreeTest_TestD2Ev
FNDA:1,_ZN48CompleteBinaryTreeTest_RemoveSingleNodeTest_Test8TestBodyEv
FNDA:1,_ZN48CompleteBinaryTreeTest_RemoveSingleNodeTest_TestC2Ev
FNDA:1,_ZN48CompleteBinaryTreeTest_RemoveSingleNodeTest_TestD0Ev
FNDA:1,_ZN48CompleteBinaryTreeTest_RemoveSingleNodeTest_TestD2Ev
FNDA:1,_ZN53CompleteBinaryTreeTest_RemoveNonExistentNodeTest_Test8TestBodyEv
FNDA:1,_ZN53CompleteBinaryTreeTest_RemoveNonExistentNodeTest_TestC2Ev
FNDA:1,_ZN53CompleteBinaryTreeTest_RemoveNonExistentNodeTest_TestD0Ev
FNDA:1,_ZN53CompleteBinaryTreeTest_RemoveNonExistentNodeTest_TestD2Ev
FNDA:1,_ZN40CompleteBinaryTreeTest_LoadSaveTest_Test8TestBodyEv
FNDA:1,_ZN40CompleteBinaryTreeTest_LoadSaveTest_TestC2Ev
FNDA:1,_ZN40CompleteBinaryTreeTest_LoadSaveTest_TestD0Ev
FNDA:1,_ZN40CompleteBinaryTreeTest_LoadSaveTest_TestD2Ev
FNDA:1,_ZN45CompleteBinaryTreeTest_LoadEmptyFileTest_Test8TestBodyEv
FNDA:1,_ZN45CompleteBinaryTreeTest_LoadEmptyFileTest_TestC2Ev
FNDA:1,_ZN45CompleteBinaryTreeTest_LoadEmptyFileTest_TestD0Ev
FNDA:1,_ZN45CompleteBinaryTreeTest_LoadEmptyFileTest_TestD2Ev
FNDA:1,_ZN57CompleteBinaryTreeTest_IsCompleteTreeWithOneNodeTest_Test8TestBodyEv
FNDA:1,_ZN57CompleteBinaryTreeTest_IsCompleteTreeWithOneNodeTest_TestC2Ev
FNDA:1,_ZN57CompleteBinaryTreeTest_IsCompleteTreeWithOneNodeTest_TestD0Ev
FNDA:1,_ZN57CompleteBinaryTreeTest_IsCompleteTreeWithOneNodeTest_TestD2Ev
FNDA:1,_ZN49CompleteBinaryTreeTest_AddToCompleteTreeTest_Test8TestBodyEv
FNDA:1,_ZN49CompleteBinaryTreeTest_AddToCompleteTreeTest_TestC2Ev
FNDA:1,_ZN49CompleteBinaryTreeTest_AddToCompleteTreeTest_TestD0Ev
FNDA:1,_ZN49CompleteBinaryTreeTest_AddToCompleteTreeTest_TestD2Ev
FNDA:1,_ZN51CompleteBinaryTreeTest_FindNonExistentNodeTest_Test8TestBodyEv
FNDA:1,_ZN51CompleteBinaryTreeTest_FindNonExistentNodeTest_TestC2Ev
FNDA:1,_ZN51CompleteBinaryTreeTest_FindNonExistentNodeTest_TestD0Ev
FNDA:1,_ZN51CompleteBinaryTreeTest_FindNonExistentNodeTest_TestD2Ev
FNDA:1,_ZN51CompleteBinaryTreeTest_AddMultipleElementsTest_Test8TestBodyEv
FNDA:1,_ZN51CompleteBinaryTreeTest_AddMultipleElementsTest_TestC2Ev
FNDA:1,_ZN51CompleteBinaryTreeTest_AddMultipleElementsTest_TestD0Ev
FNDA:1,_ZN51CompleteBinaryTreeTest_AddMultipleElementsTest_TestD2Ev
FNDA:1,_ZN37CompleteBinaryTreeTest_TestPrint_Test8TestBodyEv
FNDA:1,_ZN37CompleteBinaryTreeTest_TestPrint_TestC2Ev
FNDA:1,_ZN37CompleteBinaryTreeTest_TestPrint_TestD0Ev
FNDA:1,_ZN37CompleteBinaryTreeTest_TestPrint_TestD2Ev
FNDA:1,_ZN37Queue2Test_FrontOnEmptyQueueTest_Test8TestBodyEv
FNDA:1,_ZN37Queue2Test_FrontOnEmptyQueueTest_TestC2Ev
FNDA:1,_ZN37Queue2Test_FrontOnEmptyQueueTest_TestD0Ev
FNDA:1,_ZN37Queue2Test_FrontOnEmptyQueueTest_TestD2Ev
FNDA:1,_ZN35Queue2Test_PopOnEmptyQueueTest_Test8TestBodyEv
FNDA:1,_ZN35Queue2Test_PopOnEmptyQueueTest_TestC2Ev
FNDA:1,_ZN35Queue2Test_PopOnEmptyQueueTest_TestD0Ev
FNDA:1,_ZN35Queue2Test_PopOnEmptyQueueTest_TestD2Ev
FNDA:1,_ZN35Queue2Test_PushPopSequenceTest_Test8TestBodyEv
FNDA:1,_ZN35Queue2Test_PushPopSequenceTest_TestC2Ev
FNDA:1,_ZN35Queue2Test_PushPopSequenceTest_TestD0Ev
FNDA:1,_ZN35Queue2Test_PushPopSequenceTest_TestD2Ev
FNDA:1,_ZN27Queue2Test_PushPopTest_Test8TestBodyEv
FNDA:1,_ZN27Queue2Test_PushPopTest_TestC2Ev
FNDA:1,_ZN27Queue2Test_PushPopTest_TestD0Ev
FNDA:1,_ZN27Queue2Test_PushPopTest_TestD2Ev
FNDA:1,_ZN24Queue2Test_SizeTest_Test8TestBodyEv
FNDA:1,_ZN24Queue2Test_SizeTest_TestC2Ev
FNDA:1,_ZN24Queue2Test_SizeTest_TestD0Ev
FNDA:1,_ZN24Queue2Test_SizeTest_TestD2Ev
FNDA:1,_ZN30Queue2Test_EmptyQueueTest_Test8TestBodyEv
FNDA:1,_ZN30Queue2Test_EmptyQueueTest_TestC2Ev
FNDA:1,_ZN30Queue2Test_EmptyQueueTest_TestD0Ev
FNDA:1,_ZN30Queue2Test_EmptyQueueTest_TestD2Ev
FNDA:1,_ZN35CompleteBinaryTreeTest_AddTest_Test8TestBodyEv
FNDA:1,_ZN35CompleteBinaryTreeTest_AddTest_TestC2Ev
FNDA:1,_ZN35CompleteBinaryTreeTest_AddTest_TestD0Ev
FNDA:1,_ZN35CompleteBinaryTreeTest_AddTest_TestD2Ev
FNDA:1,_ZN38CompleteBinaryTreeTest_RemoveTest_Test8TestBodyEv
FNDA:1,_ZN38CompleteBinaryTreeTest_RemoveTest_TestC2Ev
FNDA:1,_ZN38CompleteBinaryTreeTest_RemoveTest_TestD0Ev
FNDA:1,_ZN38CompleteBinaryTreeTest_RemoveTest_TestD2Ev
FNF:72
FNH:72
DA:6,4
DA:7,1
DA:8,1
DA:10,1
DA:11,1
DA:12,1
DA:14,1
DA:15,1
DA:17,1
DA:18,1
DA:19,1
DA:22,4
DA:23,1
DA:24,1
DA:25,1
DA:28,4
DA:29,1
DA:30,1
DA:31,1
DA:34,4
DA:35,1
DA:37,6
DA:38,5
DA:39,5
DA:42,6
DA:43,5
DA:44,5
DA:45,5
DA:48,1
DA:49,1
DA:51,4
DA:52,1
DA:53,1
DA:54,1
DA:55,1
DA:57,1
DA:58,1
DA:59,1
DA:60,1
DA:61,1
DA:62,1
DA:63,1
DA:64,1
DA:66,4
DA:67,1
DA:68,1
DA:69,1
DA:70,1
DA:71,1
DA:74,4
DA:75,1
DA:76,1
DA:77,1
DA:78,1
DA:80,1
DA:81,1
DA:82,1
DA:83,1
DA:84,1
DA:85,1
DA:87,4
DA:88,1
DA:89,1
DA:90,1
DA:91,1
DA:92,1
DA:94,1
DA:95,1
DA:96,1
DA:97,1
DA:98,1
DA:100,4
DA:101,1
DA:102,1
DA:103,1
DA:104,1
DA:105,1
DA:106,1
DA:107,1
DA:108,1
DA:109,1
DA:110,1
DA:112,1
DA:113,1
DA:115,4
DA:116,1
DA:117,1
DA:118,1
DA:120,1
DA:121,1
DA:122,1
DA:124,4
DA:125,1
DA:126,1
DA:127,1
DA:129,1
DA:130,1
DA:132,4
DA:133,1
DA:134,1
DA:135,1
DA:136,1
DA:138,1
DA:140,1
DA:141,1
DA:143,1
DA:144,1
DA:145,1
DA:146,1
DA:147,1
DA:149,4
DA:150,1
DA:152,3
DA:153,1
DA:155,4
DA:156,1
DA:157,1
DA:159,1
DA:160,1
DA:162,4
DA:163,1
DA:164,1
DA:165,1
DA:166,1
DA:167,1
DA:168,1
DA:169,1
DA:171,1
DA:172,1
DA:174,4
DA:175,1
DA:176,1
DA:177,1
DA:179,1
DA:180,1
DA:182,4
DA:183,1
DA:184,101
DA:185,100
DA:188,1
DA:189,1
DA:190,1
DA:193,4
DA:194,1
DA:197,1
DA:198,1
DA:199,1
DA:200,1
DA:201,1
DA:204,1
DA:205,1
DA:209,1
DA:210,0
DA:211,0
DA:212,0
DA:213,0
DA:214,0
DA:217,1
DA:220,1
DA:221,1
LF:160
LH:155
end_of_record
TN:
SF:/usr/include/benchmark/benchmark.h
FNF:0
FNH:0
DA:515,37765390
DA:516,37765390
DA:531,2476351942
DA:532,2476351942
DA:639,96
DA:640,48
DA:828,526
DA:866,526
DA:878,48
DA:879,48
DA:880,48
DA:881,48
DA:906,2168801870
DA:907,2168801870
DA:908,2168801870
DA:926,48
DA:927,48
DA:930,48
DA:1037,526
DA:1038,526
DA:1045,2235055904
DA:1046,2235055904
DA:1047,2235055904
DA:1048,2235055904
DA:1052,2235056430
DA:1053,2235056430
DA:1054,526
DA:1055,2235056430
DA:1063,526
DA:1064,1052
DA:1066,526
DA:1067,526
LF:32
LH:32
end_of_record
TN:
SF:/usr/include/c++/13/bits/alloc_traits.h
FNF:0
FNH:0
DA:481,48
DA:482,48
DA:516,0
DA:517,0
DA:533,48
DA:538,48
DA:554,0
DA:558,0
LF:8
LH:4
end_of_record
TN:
SF:/usr/include/c++/13/bits/allocator.h
FNF:0
FNH:0
DA:163,183932
DA:167,183915
DA:168,183915
DA:184,183932
LF:4
LH:4
end_of_record
TN:
SF:/usr/include/c++/13/bits/basic_ios.h
FNF:0
FNH:0
DA:117,12400948
DA:118,12400948
DA:137,12400948
DA:138,12400948
DA:201,12400948
DA:202,12400948
LF:6
LH:6
end_of_record
TN:
SF:/usr/include/c++/13/bits/basic_string.h
FN:3674,3676,_ZStplIcSt11char_traitsIcESaIcEENSt7__cxx1112basic_stringIT_T0_T1_EEPKS5_OS8_
FN:3688,3690,_ZStplIcSt11char_traitsIcESaIcEENSt7__cxx1112basic_stringIT_T0_T1_EEOS8_PKS5_
FN:3710,3716,_ZSteqIcSt11char_traitsIcESaIcEEbRKNSt7__cxx1112basic_stringIT_T0_T1_EESA_
FN:3727,3732,_ZSteqIcSt11char_traitsIcESaIcEEbRKNSt7__cxx1112basic_stringIT_T0_T1_EEPKS5_
FN:3788,3791,_ZStneIcSt11char_traitsIcESaIcEEbRKNSt7__cxx1112basic_stringIT_T0_T1_EESA_
FN:4204,4212,_ZNSt7__cxx119to_stringEm
FN:641,650,_ZNSt7__cxx1112basic_stringIcSt11char_traitsIcESaIcEEC2IS3_EEPKcRKS3_
FN:664,666,_ZNSt7__cxx1112basic_stringIcSt11char_traitsIcESaIcEEC2IS3_EEmcRKS3_
FNDA:5,_ZStplIcSt11char_traitsIcESaIcEENSt7__cxx1112basic_stringIT_T0_T1_EEPKS5_OS8_
FNDA:5,_ZStplIcSt11char_traitsIcESaIcEENSt7__cxx1112basic_stringIT_T0_T1_EEOS8_PKS5_
FNDA:9,_ZSteqIcSt11char_traitsIcESaIcEEbRKNSt7__cxx1112basic_stringIT_T0_T1_EESA_
FNDA:5,_ZSteqIcSt11char_traitsIcESaIcEEbRKNSt7__cxx1112basic_stringIT_T0_T1_EEPKS5_
FNDA:0,_ZStneIcSt11char_traitsIcESaIcEEbRKNSt7__cxx1112basic_stringIT_T0_T1_EESA_
FNDA:5,_ZNSt7__cxx119to_stringEm
FNDA:184021,_ZNSt7__cxx1112basic_stringIcSt11char_traitsIcESaIcEEC2IS3_EEPKcRKS3_
FNDA:5,_ZNSt7__cxx1112basic_stringIcSt11char_traitsIcESaIcEEC2IS3_EEmcRKS3_
FNF:8
FNH:7
DA:181,183842
DA:188,183915
DA:189,183915
DA:212,183909
DA:213,183909
DA:217,183915
DA:218,183915
DA:222,367830
DA:223,183915
DA:227,183915
DA:230,183915
DA:249,183909
DA:250,183909
DA:254,183915
DA:256,183915
DA:257,183915
DA:355,37
DA:425,183915
DA:427,183915
DA:428,0
DA:430,183915
DA:482,183915
DA:484,183915
DA:641,184021
DA:642,184021
DA:645,184021
DA:646,0
DA:648,184021
DA:649,184021
DA:650,184021
DA:664,5
DA:665,5
DA:666,5
DA:803,183842
DA:804,183842
DA:3674,5
DA:3676,5
DA:3688,5
DA:3690,5
DA:3710,9
DA:3714,9
DA:3715,9
DA:3727,5
DA:3730,5
DA:3731,5
DA:3788,0
DA:3791,0
DA:3829,0
DA:3832,0
DA:4204,5
DA:4209,5
DA:4210,5
DA:4211,5
DA:4212,0
LF:54
LH:47
end_of_record
TN:
SF:/usr/include/c++/13/bits/basic_string.tcc
FN:221,252,_ZNSt7__cxx1112basic_stringIcSt11char_traitsIcESaIcEE12_M_constructIPKcEEvT_S8_St20forward_iterator_tag
FN:221,252,_ZNSt7__cxx1112basic_stringIcSt11char_traitsIcESaIcEE12_M_constructIPcEEvT_S7_St20forward_iterator_tag
FN:239,239,_ZZNSt7__cxx1112basic_stringIcSt11char_traitsIcESaIcEE12_M_constructIPKcEEvT_S8_St20forward_iterator_tagEN6_GuardC2EPS4_
FN:239,239,_ZZNSt7__cxx1112basic_stringIcSt11char_traitsIcESaIcEE12_M_constructIPcEEvT_S7_St20forward_iterator_tagEN6_GuardC2EPS4_
FN:242,242,_ZZNSt7__cxx1112basic_stringIcSt11char_traitsIcESaIcEE12_M_constructIPKcEEvT_S8_St20forward_iterator_tagEN6_GuardD2Ev
FN:242,242,_ZZNSt7__cxx1112basic_stringIcSt11char_traitsIcESaIcEE12_M_constructIPcEEvT_S7_St20forward_iterator_tagEN6_GuardD2Ev
FNDA:184021,_ZNSt7__cxx1112basic_stringIcSt11char_traitsIcESaIcEE12_M_constructIPKcEEvT_S8_St20forward_iterator_tag
FNDA:0,_ZNSt7__cxx1112basic_stringIcSt11char_traitsIcESaIcEE12_M_constructIPcEEvT_S7_St20forward_iterator_tag
FNDA:106,_ZZNSt7__cxx1112basic_stringIcSt11char_traitsIcESaIcEE12_M_constructIPKcEEvT_S8_St20forward_iterator_tagEN6_GuardC2EPS4_
FNDA:0,_ZZNSt7__cxx1112basic_stringIcSt11char_traitsIcESaIcEE12_M_constructIPcEEvT_S7_St20forward_iterator_tagEN6_GuardC2EPS4_
FNDA:106,_ZZNSt7__cxx1112basic_stringIcSt11char_traitsIcESaIcEE12_M_constructIPKcEEvT_S8_St20forward_iterator_tagEN6_GuardD2Ev
FNDA:0,_ZZNSt7__cxx1112basic_stringIcSt11char_traitsIcESaIcEE12_M_constructIPcEEvT_S7_St20forward_iterator_tagEN6_GuardD2Ev
FNF:6
FNH:3
DA:221,184021
DA:225,184021
DA:227,184021
DA:229,183978
DA:230,183978
DA:239,184021
DA:242,184021
DA:245,184021
DA:247,184021
DA:249,184021
DA:251,184021
DA:252,184021
LF:12
LH:12
end_of_record
TN:
SF:/usr/include/c++/13/bits/char_traits.h
FN:136,137,_ZN9__gnu_cxx11char_traitsIcE2eqERKcS3_
FN:199,206,_ZN9__gnu_cxx11char_traitsIcE6lengthEPKc
FN:366,371,_ZNSt11char_traitsIcE2ltERKcS2_
FN:374,390,_ZNSt11char_traitsIcE7compareEPKcS2_m
FN:393,400,_ZNSt11char_traitsIcE6lengthEPKc
FN:427,436,_ZNSt11char_traitsIcE4copyEPcPKcm
FNDA:0,_ZN9__gnu_cxx11char_traitsIcE2eqERKcS3_
FNDA:0,_ZN9__gnu_cxx11char_traitsIcE6lengthEPKc
FNDA:0,_ZNSt11char_traitsIcE2ltERKcS2_
FNDA:14,_ZNSt11char_traitsIcE7compareEPKcS2_m
FNDA:111,_ZNSt11char_traitsIcE6lengthEPKc
FNDA:0,_ZNSt11char_traitsIcE4copyEPcPKcm
FNF:6
FNH:2
DA:136,0
DA:137,0
DA:199,0
DA:202,0
DA:203,0
DA:204,0
DA:205,0
DA:351,183915
DA:358,0
DA:359,0
DA:366,0
DA:369,0
DA:370,0
DA:374,14
DA:376,14
DA:377,0
DA:379,14
DA:381,0
DA:382,0
DA:383,0
DA:384,0
DA:385,0
DA:386,0
DA:389,14
DA:393,184026
DA:396,184026
DA:397,0
DA:399,184026
DA:427,183915
DA:429,183915
DA:430,0
DA:435,183915
LF:32
LH:11
end_of_record
TN:
SF:/usr/include/c++/13/bits/charconv.h
FN:55,74,_ZNSt8__detail14__to_chars_lenImEEjT_i
FN:81,110,_ZNSt8__detail18__to_chars_10_implImEEvPcjT_
FNDA:5,_ZNSt8__detail14__to_chars_lenImEEjT_i
FNDA:5,_ZNSt8__detail18__to_chars_10_implImEEvPcjT_
FNF:2
FNH:2
DA:55,5
DA:61,5
DA:62,5
DA:63,5
DA:64,5
DA:67,5
DA:68,0
DA:69,0
DA:70,0
DA:71,0
DA:72,0
DA:81,5
DA:87,5
DA:93,5
DA:94,5
DA:96,0
DA:97,0
DA:98,0
DA:99,0
DA:100,0
DA:102,5
DA:104,0
DA:105,0
DA:106,0
DA:109,5
DA:110,5
LF:26
LH:13
end_of_record
TN:
SF:/usr/include/c++/13/bits/ios_base.h
FN:130,131,_ZStorSt13_Ios_OpenmodeS_
FNDA:3,_ZStorSt13_Ios_OpenmodeS_
FNF:1
FNH:1
DA:130,3
DA:131,3
DA:166,12400948
DA:167,12400948
LF:4
LH:4
end_of_record
TN:
SF:/usr/include/c++/13/bits/locale_facets.h
FN:1092,1093,_ZNKSt5ctypeIcE8do_widenEc
FN:880,886,_ZNKSt5ctypeIcE5widenEc
FNDA:1,_ZNKSt5ctypeIcE8do_widenEc
FNDA:0,_ZNKSt5ctypeIcE5widenEc
FNF:2
FNH:1
DA:880,0
DA:882,0
DA:883,0
DA:884,0
DA:885,0
DA:1092,1
DA:1093,1
LF:7
LH:2
end_of_record
TN:
SF:/usr/include/c++/13/bits/move.h
FN:70,71,_ZSt7forwardISt14default_deleteINSt7__cxx1112basic_stringIcSt11char_traitsIcESaIcEEEEEOT_RNSt16remove_referenceIS8_E4typeE
FN:97,98,_ZSt4moveIRNSt7__cxx1112basic_stringIcSt11char_traitsIcESaIcEEEEONSt16remove_referenceIT_E4typeEOS8_
FN:97,98,_ZSt4moveIRPNSt7__cxx1112basic_stringIcSt11char_traitsIcESaIcEEEEONSt16remove_referenceIT_E4typeEOS9_
FN:97,98,_ZSt4moveIRPNSt7__cxx1118basic_stringstreamIcSt11char_traitsIcESaIcEEEEONSt16remove_referenceIT_E4typeEOS9_
FN:97,98,_ZSt4moveIRSaIcEEONSt16remove_referenceIT_E4typeEOS3_
FNDA:0,_ZSt7forwardISt14default_deleteINSt7__cxx1112basic_stringIcSt11char_traitsIcESaIcEEEEEOT_RNSt16remove_referenceIS8_E4typeE
FNDA:10,_ZSt4moveIRNSt7__cxx1112basic_stringIcSt11char_traitsIcESaIcEEEEONSt16remove_referenceIT_E4typeEOS8_
FNDA:0,_ZSt4moveIRPNSt7__cxx1112basic_stringIcSt11char_traitsIcESaIcEEEEONSt16remove_referenceIT_E4typeEOS9_
FNDA:0,_ZSt4moveIRPNSt7__cxx1118basic_stringstreamIcSt11char_traitsIcESaIcEEEEONSt16remove_referenceIT_E4typeEOS9_
FNDA:0,_ZSt4moveIRSaIcEEONSt16remove_referenceIT_E4typeEOS3_
FNF:5
FNH:1
DA:70,0
DA:71,0
DA:97,10
DA:98,10
LF:4
LH:2
end_of_record
TN:
SF:/usr/include/c++/13/bits/new_allocator.h
FN:104,104,_ZNSt15__new_allocatorIcED2Ev
FN:126,152,_ZNSt15__new_allocatorISt13_Rb_tree_nodeISt4pairIKNSt7__cxx1112basic_stringIcSt11char_traitsIcESaIcEEEN9benchmark7CounterEEEE8allocateEmPKv
FN:156,173,_ZNSt15__new_allocatorISt13_Rb_tree_nodeISt4pairIKNSt7__cxx1112basic_stringIcSt11char_traitsIcESaIcEEEN9benchmark7CounterEEEE10deallocateEPSC_m
FN:156,173,_ZNSt15__new_allocatorIcE10deallocateEPcm
FNDA:111,_ZNSt15__new_allocatorIcED2Ev
FNDA:48,_ZNSt15__new_allocatorISt13_Rb_tree_nodeISt4pairIKNSt7__cxx1112basic_stringIcSt11char_traitsIcESaIcEEEN9benchmark7CounterEEEE8allocateEmPKv
FNDA:0,_ZNSt15__new_allocatorISt13_Rb_tree_nodeISt4pairIKNSt7__cxx1112basic_stringIcSt11char_traitsIcESaIcEEEN9benchmark7CounterEEEE10deallocateEPSC_m
FNDA:183842,_ZNSt15__new_allocatorIcE10deallocateEPcm
FNF:4
FNH:3
DA:88,183932
DA:92,183915
DA:104,184001
DA:126,48
DA:134,48
DA:138,0
DA:139,0
DA:140,0
DA:151,48
DA:156,183842
DA:172,183842
DA:189,48
DA:191,48
DA:196,0
DA:198,0
LF:15
LH:10
end_of_record
TN:
SF:/usr/include/c++/13/bits/stl_function.h
FNF:0
FNH:0
DA:407,0
DA:408,0
DA:1182,48
DA:1183,48
LF:4
LH:2
end_of_record
TN:
SF:/usr/include/c++/13/bits/stl_iterator.h
FN:1099,1100,_ZNK9__gnu_cxx17__normal_iteratorIPKcNSt7__cxx1112basic_stringIcSt11char_traitsIcESaIcEEEEdeEv
FN:1109,1113,_ZN9__gnu_cxx17__normal_iteratorIPKcNSt7__cxx1112basic_stringIcSt11char_traitsIcESaIcEEEEppEv
FN:1162,1163,_ZNK9__gnu_cxx17__normal_iteratorIPKcNSt7__cxx1112basic_stringIcSt11char_traitsIcESaIcEEEE4baseEv
FN:1241,1244,_ZN9__gnu_cxxneIPKcNSt7__cxx1112basic_stringIcSt11char_traitsIcESaIcEEEEEbRKNS_17__normal_iteratorIT_T0_EESE_
FNDA:60,_ZNK9__gnu_cxx17__normal_iteratorIPKcNSt7__cxx1112basic_stringIcSt11char_traitsIcESaIcEEEEdeEv
FNDA:60,_ZN9__gnu_cxx17__normal_iteratorIPKcNSt7__cxx1112basic_stringIcSt11char_traitsIcESaIcEEEEppEv
FNDA:150,_ZNK9__gnu_cxx17__normal_iteratorIPKcNSt7__cxx1112basic_stringIcSt11char_traitsIcESaIcEEEE4baseEv
FNDA:75,_ZN9__gnu_cxxneIPKcNSt7__cxx1112basic_stringIcSt11char_traitsIcESaIcEEEEEbRKNS_17__normal_iteratorIT_T0_EESE_
FNF:4
FNH:4
DA:1099,60
DA:1100,60
DA:1109,60
DA:1111,60
DA:1112,60
DA:1162,150
DA:1163,150
DA:1241,75
DA:1244,75
LF:9
LH:9
end_of_record
TN:
SF:/usr/include/c++/13/bits/stl_iterator_base_funcs.h
FNF:0
FNH:0
DA:100,183915
DA:106,184021
DA:148,183915
DA:151,184127
DA:152,212
LF:5
LH:5
end_of_record
TN:
SF:/usr/include/c++/13/bits/stl_iterator_base_types.h
FNF:0
FNH:0
DA:240,106
LF:1
LH:1
end_of_record
TN:
SF:/usr/include/c++/13/bits/stl_map.h
FN:524,536,_ZNSt3mapINSt7__cxx1112basic_stringIcSt11char_traitsIcESaIcEEEN9benchmark7CounterESt4lessIS5_ESaISt4pairIKS5_S7_EEEixEOS5_
FNDA:48,_ZNSt3mapINSt7__cxx1112basic_stringIcSt11char_traitsIcESaIcEEEN9benchmark7CounterESt4lessIS5_ESaISt4pairIKS5_S7_EEEixEOS5_
FNF:1
FNH:1
DA:386,48
DA:387,48
DA:524,48
DA:529,48
DA:531,48
DA:532,48
DA:534,48
DA:535,48
DA:1193,0
DA:1308,48
DA:1309,48
LF:11
LH:10
end_of_record
TN:
SF:/usr/include/c++/13/bits/stl_pair.h
FNF:0
FNH:0
DA:187,0
DA:558,0
DA:687,48
LF:3
LH:1
end_of_record
TN:
SF:/usr/include/c++/13/bits/stl_tree.h
FN:1270,1271,_ZNSt8_Rb_treeINSt7__cxx1112basic_stringIcSt11char_traitsIcESaIcEEESt4pairIKS5_N9benchmark7CounterEESt10_Select1stISA_ESt4lessIS5_ESaISA_EE11lower_boundERS7_
FN:1640,1644,_ZNSt8_Rb_treeINSt7__cxx1112basic_stringIcSt11char_traitsIcESaIcEEESt4pairIKS5_N9benchmark7CounterEESt10_Select1stISA_ESt4lessIS5_ESaISA_EE10_Auto_nodeD2Ev
FN:2108,2132,_ZNSt8_Rb_treeINSt7__cxx1112basic_stringIcSt11char_traitsIcESaIcEEESt4pairIKS5_N9benchmark7CounterEESt10_Select1stISA_ESt4lessIS5_ESaISA_EE24_M_get_insert_unique_posERS7_
FN:2210,2261,_ZNSt8_Rb_treeINSt7__cxx1112basic_stringIcSt11char_traitsIcESaIcEEESt4pairIKS5_N9benchmark7CounterEESt10_Select1stISA_ESt4lessIS5_ESaISA_EE29_M_get_insert_hint_unique_posESt23_Rb_tree_const_iteratorISA_ERS7_
FN:2377,2389,_ZNSt8_Rb_treeINSt7__cxx1112basic_stringIcSt11char_traitsIcESaIcEEESt4pairIKS5_N9benchmark7CounterEESt10_Select1stISA_ESt4lessIS5_ESaISA_EE14_M_insert_nodeEPSt18_Rb_tree_node_baseSI_PSt13_Rb_tree_nodeISA_E
FN:2458,2467,_ZNSt8_Rb_treeINSt7__cxx1112basic_stringIcSt11char_traitsIcESaIcEEESt4pairIKS5_N9benchmark7CounterEESt10_Select1stISA_ESt4lessIS5_ESaISA_EE22_M_emplace_hint_uniqueIJRKSt21piecewise_construct_tSt5tupleIJOS5_EESL_IJEEEEESt17_Rb_tree_iteratorISA_ESt23_Rb_tree_const_iteratorISA_EDpOT_
FN:611,616,_ZNSt8_Rb_treeINSt7__cxx1112basic_stringIcSt11char_traitsIcESaIcEEESt4pairIKS5_N9benchmark7CounterEESt10_Select1stISA_ESt4lessIS5_ESaISA_EE14_M_create_nodeIJRKSt21piecewise_construct_tSt5tupleIJOS5_EESL_IJEEEEEPSt13_Rb_tree_nodeISA_EDpOT_
FNDA:48,_ZNSt8_Rb_treeINSt7__cxx1112basic_stringIcSt11char_traitsIcESaIcEEESt4pairIKS5_N9benchmark7CounterEESt10_Select1stISA_ESt4lessIS5_ESaISA_EE11lower_boundERS7_
FNDA:48,_ZNSt8_Rb_treeINSt7__cxx1112basic_stringIcSt11char_traitsIcESaIcEEESt4pairIKS5_N9benchmark7CounterEESt10_Select1stISA_ESt4lessIS5_ESaISA_EE10_Auto_nodeD2Ev
FNDA:48,_ZNSt8_Rb_treeINSt7__cxx1112basic_stringIcSt11char_traitsIcESaIcEEESt4pairIKS5_N9benchmark7CounterEESt10_Select1stISA_ESt4lessIS5_ESaISA_EE24_M_get_insert_unique_posERS7_
FNDA:48,_ZNSt8_Rb_treeINSt7__cxx1112basic_stringIcSt11char_traitsIcESaIcEEESt4pairIKS5_N9benchmark7CounterEESt10_Select1stISA_ESt4lessIS5_ESaISA_EE29_M_get_insert_hint_unique_posESt23_Rb_tree_const_iteratorISA_ERS7_
FNDA:48,_ZNSt8_Rb_treeINSt7__cxx1112basic_stringIcSt11char_traitsIcESaIcEEESt4pairIKS5_N9benchmark7CounterEESt10_Select1stISA_ESt4lessIS5_ESaISA_EE14_M_insert_nodeEPSt18_Rb_tree_node_baseSI_PSt13_Rb_tree_nodeISA_E
FNDA:48,_ZNSt8_Rb_treeINSt7__cxx1112basic_stringIcSt11char_traitsIcESaIcEEESt4pairIKS5_N9benchmark7CounterEESt10_Select1stISA_ESt4lessIS5_ESaISA_EE22_M_emplace_hint_uniqueIJRKSt21piecewise_construct_tSt5tupleIJOS5_EESL_IJEEEEESt17_Rb_tree_iteratorISA_ESt23_Rb_tree_const_iteratorISA_EDpOT_
FNDA:48,_ZNSt8_Rb_treeINSt7__cxx1112basic_stringIcSt11char_traitsIcESaIcEEESt4pairIKS5_N9benchmark7CounterEESt10_Select1stISA_ESt4lessIS5_ESaISA_EE14_M_create_nodeIJRKSt21piecewise_construct_tSt5tupleIJOS5_EESL_IJEEEEEPSt13_Rb_tree_nodeISA_EDpOT_
FNF:7
FNH:7
DA:234,48
DA:235,96
DA:239,48
DA:273,288
DA:274,48
DA:278,0
DA:285,0
DA:287,0
DA:300,0
DA:302,0
DA:303,0
DA:315,48
DA:350,48
DA:351,48
DA:354,48
DA:355,48
DA:549,48
DA:550,96
DA:562,48
DA:563,96
DA:566,0
DA:567,0
DA:592,48
DA:596,48
DA:597,48
DA:611,48
DA:613,48
DA:614,48
DA:615,48
DA:620,0
DA:625,0
DA:626,0
DA:631,0
DA:633,0
DA:634,0
DA:635,0
DA:721,0
DA:729,0
DA:736,96
DA:737,96
DA:740,96
DA:741,96
DA:751,192
DA:752,192
DA:759,48
DA:777,48
DA:781,0
DA:782,0
DA:789,0
DA:790,0
DA:797,0
DA:798,0
DA:997,48
DA:998,48
DA:1005,48
DA:1006,48
DA:1033,48
DA:1034,48
DA:1270,48
DA:1271,96
DA:1635,48
DA:1636,48
DA:1637,96
DA:1640,48
DA:1642,48
DA:1643,0
DA:1644,48
DA:1651,48
DA:1652,48
DA:1655,48
DA:1657,48
DA:1658,48
DA:1659,48
DA:1947,48
DA:1951,48
DA:1952,0
DA:1953,0
DA:1955,0
DA:1956,48
DA:2108,48
DA:2112,48
DA:2113,48
DA:2114,48
DA:2115,48
DA:2117,0
DA:2118,0
DA:2119,0
DA:2121,48
DA:2122,48
DA:2124,48
DA:2125,48
DA:2127,0
DA:2129,0
DA:2130,0
DA:2131,0
DA:2210,48
DA:2214,48
DA:2218,48
DA:2220,48
DA:2221,48
DA:2222,0
DA:2224,48
DA:2226,0
DA:2229,0
DA:2230,0
DA:2231,0
DA:2232,0
DA:2234,0
DA:2235,0
DA:2237,0
DA:2240,0
DA:2242,0
DA:2245,0
DA:2246,0
DA:2247,0
DA:2248,0
DA:2250,0
DA:2251,0
DA:2253,0
DA:2256,0
DA:2260,0
DA:2377,48
DA:2381,48
DA:2382,48
DA:2385,48
DA:2386,48
DA:2387,48
DA:2388,48
DA:2458,48
DA:2462,48
DA:2463,48
DA:2464,48
DA:2465,48
DA:2466,0
DA:2467,48
LF:135
LH:80
end_of_record
TN:
SF:/usr/include/c++/13/bits/stl_vector.h
FNF:0
FNH:0
DA:992,2168801870
DA:993,2168801870
LF:2
LH:2
end_of_record
TN:
SF:/usr/include/c++/13/bits/unique_ptr.h
FN:1069,1070,_ZSt11make_uniqueINSt7__cxx1112basic_stringIcSt11char_traitsIcESaIcEEEJEENSt8__detail9_MakeUniqIT_E15__single_objectEDpOT0_
FN:174,174,_ZNSt15__uniq_ptr_implINSt7__cxx1112basic_stringIcSt11char_traitsIcESaIcEEESt14default_deleteIS5_EEC2Ev
FN:176,176,_ZNSt15__uniq_ptr_implINSt7__cxx1112basic_stringIcSt11char_traitsIcESaIcEEESt14default_deleteIS5_EEC2EPS5_
FN:189,194,_ZNSt15__uniq_ptr_implINSt7__cxx1112basic_stringIcSt11char_traitsIcESaIcEEESt14default_deleteIS5_EEaSEOS8_
FN:197,197,_ZNSt15__uniq_ptr_implINSt7__cxx1112basic_stringIcSt11char_traitsIcESaIcEEESt14default_deleteIS5_EE6_M_ptrEv
FN:197,197,_ZNSt15__uniq_ptr_implINSt7__cxx1118basic_stringstreamIcSt11char_traitsIcESaIcEEESt14default_deleteIS5_EE6_M_ptrEv
FN:199,199,_ZNKSt15__uniq_ptr_implINSt7__cxx1112basic_stringIcSt11char_traitsIcESaIcEEESt14default_deleteIS5_EE6_M_ptrEv
FN:199,199,_ZNKSt15__uniq_ptr_implINSt7__cxx1118basic_stringstreamIcSt11char_traitsIcESaIcEEESt14default_deleteIS5_EE6_M_ptrEv
FN:201,201,_ZNSt15__uniq_ptr_implINSt7__cxx1112basic_stringIcSt11char_traitsIcESaIcEEESt14default_deleteIS5_EE10_M_deleterEv
FN:201,201,_ZNSt15__uniq_ptr_implINSt7__cxx1118basic_stringstreamIcSt11char_traitsIcESaIcEEESt14default_deleteIS5_EE10_M_deleterEv
FN:206,212,_ZNSt15__uniq_ptr_implINSt7__cxx1112basic_stringIcSt11char_traitsIcESaIcEEESt14default_deleteIS5_EE5resetEPS5_
FN:215,220,_ZNSt15__uniq_ptr_implINSt7__cxx1112basic_stringIcSt11char_traitsIcESaIcEEESt14default_deleteIS5_EE7releaseEv
FN:243,243,_ZNSt15__uniq_ptr_dataINSt7__cxx1112basic_stringIcSt11char_traitsIcESaIcEEESt14default_deleteIS5_ELb1ELb1EEaSEOS8_
FN:304,306,_ZNSt10unique_ptrINSt7__cxx1112basic_stringIcSt11char_traitsIcESaIcEEESt14default_deleteIS5_EEC2IS7_vEEv
FN:317,319,_ZNSt10unique_ptrINSt7__cxx1112basic_stringIcSt11char_traitsIcESaIcEEESt14default_deleteIS5_EEC2IS7_vEEPS5_
FN:398,406,_ZNSt10unique_ptrINSt7__cxx1112basic_stringIcSt11char_traitsIcESaIcEEESt14default_deleteIS5_EED2Ev
FN:398,406,_ZNSt10unique_ptrINSt7__cxx1118basic_stringstreamIcSt11char_traitsIcESaIcEEESt14default_deleteIS5_EED2Ev
FN:414,414,_ZNSt10unique_ptrINSt7__cxx1112basic_stringIcSt11char_traitsIcESaIcEEESt14default_deleteIS5_EEaSEOS8_
FN:451,455,_ZNKSt10unique_ptrINSt7__cxx1118basic_stringstreamIcSt11char_traitsIcESaIcEEESt14default_deleteIS5_EEdeEv
FN:460,464,_ZNKSt10unique_ptrINSt7__cxx1112basic_stringIcSt11char_traitsIcESaIcEEESt14default_deleteIS5_EEptEv
FN:469,470,_ZNKSt10unique_ptrINSt7__cxx1112basic_stringIcSt11char_traitsIcESaIcEEESt14default_deleteIS5_EE3getEv
FN:469,470,_ZNKSt10unique_ptrINSt7__cxx1118basic_stringstreamIcSt11char_traitsIcESaIcEEESt14default_deleteIS5_EE3getEv
FN:475,476,_ZNSt10unique_ptrINSt7__cxx1112basic_stringIcSt11char_traitsIcESaIcEEESt14default_deleteIS5_EE11get_deleterEv
FN:475,476,_ZNSt10unique_ptrINSt7__cxx1118basic_stringstreamIcSt11char_traitsIcESaIcEEESt14default_deleteIS5_EE11get_deleterEv
FN:486,487,_ZNKSt10unique_ptrINSt7__cxx1112basic_stringIcSt11char_traitsIcESaIcEEESt14default_deleteIS5_EEcvbEv
FN:837,838,_ZSteqINSt7__cxx1112basic_stringIcSt11char_traitsIcESaIcEEESt14default_deleteIS5_EEbRKSt10unique_ptrIT_T0_EDn
FN:861,862,_ZStneINSt7__cxx1112basic_stringIcSt11char_traitsIcESaIcEEESt14default_deleteIS5_EEbRKSt10unique_ptrIT_T0_EDn
FN:93,100,_ZNKSt14default_deleteINSt7__cxx1112basic_stringIcSt11char_traitsIcESaIcEEEEclEPS5_
FN:93,100,_ZNKSt14default_deleteINSt7__cxx1118basic_stringstreamIcSt11char_traitsIcESaIcEEEEclEPS5_
FNDA:0,_ZSt11make_uniqueINSt7__cxx1112basic_stringIcSt11char_traitsIcESaIcEEEJEENSt8__detail9_MakeUniqIT_E15__single_objectEDpOT0_
FNDA:24,_ZNSt15__uniq_ptr_implINSt7__cxx1112basic_stringIcSt11char_traitsIcESaIcEEESt14default_deleteIS5_EEC2Ev
FNDA:0,_ZNSt15__uniq_ptr_implINSt7__cxx1112basic_stringIcSt11char_traitsIcESaIcEEESt14default_deleteIS5_EEC2EPS5_
FNDA:0,_ZNSt15__uniq_ptr_implINSt7__cxx1112basic_stringIcSt11char_traitsIcESaIcEEESt14default_deleteIS5_EEaSEOS8_
FNDA:167,_ZNSt15__uniq_ptr_implINSt7__cxx1112basic_stringIcSt11char_traitsIcESaIcEEESt14default_deleteIS5_EE6_M_ptrEv
FNDA:0,_ZNSt15__uniq_ptr_implINSt7__cxx1118basic_stringstreamIcSt11char_traitsIcESaIcEEESt14default_deleteIS5_EE6_M_ptrEv
FNDA:0,_ZNKSt15__uniq_ptr_implINSt7__cxx1112basic_stringIcSt11char_traitsIcESaIcEEESt14default_deleteIS5_EE6_M_ptrEv
FNDA:0,_ZNKSt15__uniq_ptr_implINSt7__cxx1118basic_stringstreamIcSt11char_traitsIcESaIcEEESt14default_deleteIS5_EE6_M_ptrEv
FNDA:0,_ZNSt15__uniq_ptr_implINSt7__cxx1112basic_stringIcSt11char_traitsIcESaIcEEESt14default_deleteIS5_EE10_M_deleterEv
FNDA:0,_ZNSt15__uniq_ptr_implINSt7__cxx1118basic_stringstreamIcSt11char_traitsIcESaIcEEESt14default_deleteIS5_EE10_M_deleterEv
FNDA:0,_ZNSt15__uniq_ptr_implINSt7__cxx1112basic_stringIcSt11char_traitsIcESaIcEEESt14default_deleteIS5_EE5resetEPS5_
FNDA:0,_ZNSt15__uniq_ptr_implINSt7__cxx1112basic_stringIcSt11char_traitsIcESaIcEEESt14default_deleteIS5_EE7releaseEv
FNDA:0,_ZNSt15__uniq_ptr_dataINSt7__cxx1112basic_stringIcSt11char_traitsIcESaIcEEESt14default_deleteIS5_ELb1ELb1EEaSEOS8_
FNDA:24,_ZNSt10unique_ptrINSt7__cxx1112basic_stringIcSt11char_traitsIcESaIcEEESt14default_deleteIS5_EEC2IS7_vEEv
FNDA:0,_ZNSt10unique_ptrINSt7__cxx1112basic_stringIcSt11char_traitsIcESaIcEEESt14default_deleteIS5_EEC2IS7_vEEPS5_
FNDA:167,_ZNSt10unique_ptrINSt7__cxx1112basic_stringIcSt11char_traitsIcESaIcEEESt14default_deleteIS5_EED2Ev
FNDA:0,_ZNSt10unique_ptrINSt7__cxx1118basic_stringstreamIcSt11char_traitsIcESaIcEEESt14default_deleteIS5_EED2Ev
FNDA:0,_ZNSt10unique_ptrINSt7__cxx1112basic_stringIcSt11char_traitsIcESaIcEEESt14default_deleteIS5_EEaSEOS8_
FNDA:0,_ZNKSt10unique_ptrINSt7__cxx1118basic_stringstreamIcSt11char_traitsIcESaIcEEESt14default_deleteIS5_EEdeEv
FNDA:0,_ZNKSt10unique_ptrINSt7__cxx1112basic_stringIcSt11char_traitsIcESaIcEEESt14default_deleteIS5_EEptEv
FNDA:0,_ZNKSt10unique_ptrINSt7__cxx1112basic_stringIcSt11char_traitsIcESaIcEEESt14default_deleteIS5_EE3getEv
FNDA:0,_ZNKSt10unique_ptrINSt7__cxx1118basic_stringstreamIcSt11char_traitsIcESaIcEEESt14default_deleteIS5_EE3getEv
FNDA:0,_ZNSt10unique_ptrINSt7__cxx1112basic_stringIcSt11char_traitsIcESaIcEEESt14default_deleteIS5_EE11get_deleterEv
FNDA:0,_ZNSt10unique_ptrINSt7__cxx1118basic_stringstreamIcSt11char_traitsIcESaIcEEESt14default_deleteIS5_EE11get_deleterEv
FNDA:0,_ZNKSt10unique_ptrINSt7__cxx1112basic_stringIcSt11char_traitsIcESaIcEEESt14default_deleteIS5_EEcvbEv
FNDA:0,_ZSteqINSt7__cxx1112basic_stringIcSt11char_traitsIcESaIcEEESt14default_deleteIS5_EEbRKSt10unique_ptrIT_T0_EDn
FNDA:0,_ZStneINSt7__cxx1112basic_stringIcSt11char_traitsIcESaIcEEESt14default_deleteIS5_EEbRKSt10unique_ptrIT_T0_EDn
FNDA:0,_ZNKSt14default_deleteINSt7__cxx1112basic_stringIcSt11char_traitsIcESaIcEEEEclEPS5_
FNDA:0,_ZNKSt14default_deleteINSt7__cxx1118basic_stringstreamIcSt11char_traitsIcESaIcEEEEclEPS5_
FNF:29
FNH:4
DA:93,0
DA:99,0
DA:100,0
DA:174,24
DA:176,0
DA:189,0
DA:191,0
DA:192,0
DA:193,0
DA:197,167
DA:199,0
DA:201,0
DA:206,0
DA:208,0
DA:209,0
DA:210,0
DA:211,0
DA:212,0
DA:215,0
DA:217,0
DA:218,0
DA:219,0
DA:243,0
DA:304,24
DA:305,24
DA:306,24
DA:317,0
DA:318,0
DA:319,0
DA:398,167
DA:402,167
DA:403,167
DA:404,0
DA:405,167
DA:406,167
DA:414,0
DA:451,0
DA:453,0
DA:454,0
DA:460,0
DA:463,0
DA:469,0
DA:470,0
DA:475,0
DA:476,0
DA:486,0
DA:487,0
DA:837,0
DA:838,0
DA:861,0
DA:862,0
DA:1069,0
DA:1070,0
LF:53
LH:10
end_of_record
TN:
SF:/usr/include/c++/13/ext/aligned_buffer.h
FNF:0
FNH:0
DA:64,48
DA:65,0
DA:69,48
DA:72,48
DA:73,48
LF:5
LH:4
end_of_record
TN:
SF:/usr/include/c++/13/fstream
FNF:0
FNH:0
DA:272,183842
DA:273,183842
DA:647,163238
DA:648,163238
DA:910,20604
DA:911,20604
LF:6
LH:6
end_of_record
TN:
SF:/usr/include/c++/13/ostream
FNF:0
FNH:0
DA:110,0
DA:115,0
DA:662,0
DA:667,0
DA:668,0
LF:5
LH:0
end_of_record
TN:
SF:/usr/include/c++/13/tuple
FN:125,125,_ZNSt10_Head_baseILm1ESt14default_deleteINSt7__cxx1112basic_stringIcSt11char_traitsIcESaIcEEEELb1EE7_M_headERS8_
FN:125,125,_ZNSt10_Head_baseILm1ESt14default_deleteINSt7__cxx1118basic_stringstreamIcSt11char_traitsIcESaIcEEEELb1EE7_M_headERS8_
FN:1317,1319,_ZNSt5tupleIJPNSt7__cxx1112basic_stringIcSt11char_traitsIcESaIcEEESt14default_deleteIS5_EEEC2ILb1ELb1EEEv
FN:1787,1788,_ZSt12__get_helperILm0EPNSt7__cxx1112basic_stringIcSt11char_traitsIcESaIcEEEJSt14default_deleteIS5_EEERT0_RSt11_Tuple_implIXT_EJS9_DpT1_EE
FN:1787,1788,_ZSt12__get_helperILm0EPNSt7__cxx1118basic_stringstreamIcSt11char_traitsIcESaIcEEEJSt14default_deleteIS5_EEERT0_RSt11_Tuple_implIXT_EJS9_DpT1_EE
FN:1787,1788,_ZSt12__get_helperILm1ESt14default_deleteINSt7__cxx1112basic_stringIcSt11char_traitsIcESaIcEEEEJEERT0_RSt11_Tuple_implIXT_EJS8_DpT1_EE
FN:1787,1788,_ZSt12__get_helperILm1ESt14default_deleteINSt7__cxx1118basic_stringstreamIcSt11char_traitsIcESaIcEEEEJEERT0_RSt11_Tuple_implIXT_EJS8_DpT1_EE
FN:1792,1793,_ZSt12__get_helperILm0EPNSt7__cxx1112basic_stringIcSt11char_traitsIcESaIcEEEJSt14default_deleteIS5_EEERKT0_RKSt11_Tuple_implIXT_EJS9_DpT1_EE
FN:1792,1793,_ZSt12__get_helperILm0EPNSt7__cxx1118basic_stringstreamIcSt11char_traitsIcESaIcEEEJSt14default_deleteIS5_EEERKT0_RKSt11_Tuple_implIXT_EJS9_DpT1_EE
FN:1803,1804,_ZSt3getILm0EJPNSt7__cxx1112basic_stringIcSt11char_traitsIcESaIcEEESt14default_deleteIS5_EEERNSt13tuple_elementIXT_ESt5tupleIJDpT0_EEE4typeERSD_
FN:1803,1804,_ZSt3getILm0EJPNSt7__cxx1118basic_stringstreamIcSt11char_traitsIcESaIcEEESt14default_deleteIS5_EEERNSt13tuple_elementIXT_ESt5tupleIJDpT0_EEE4typeERSD_
FN:1803,1804,_ZSt3getILm1EJPNSt7__cxx1112basic_stringIcSt11char_traitsIcESaIcEEESt14default_deleteIS5_EEERNSt13tuple_elementIXT_ESt5tupleIJDpT0_EEE4typeERSD_
FN:1803,1804,_ZSt3getILm1EJPNSt7__cxx1118basic_stringstreamIcSt11char_traitsIcESaIcEEESt14default_deleteIS5_EEERNSt13tuple_elementIXT_ESt5tupleIJDpT0_EEE4typeERSD_
FN:1809,1810,_ZSt3getILm0EJPNSt7__cxx1112basic_stringIcSt11char_traitsIcESaIcEEESt14default_deleteIS5_EEERKNSt13tuple_elementIXT_ESt5tupleIJDpT0_EEE4typeERKSD_
FN:1809,1810,_ZSt3getILm0EJPNSt7__cxx1118basic_stringstreamIcSt11char_traitsIcESaIcEEESt14default_deleteIS5_EEERKNSt13tuple_elementIXT_ESt5tupleIJDpT0_EEE4typeERKSD_
FN:190,191,_ZNSt10_Head_baseILm0EPNSt7__cxx1112basic_stringIcSt11char_traitsIcESaIcEEELb0EEC2Ev
FN:2252,2258,_ZNSt4pairIKNSt7__cxx1112basic_stringIcSt11char_traitsIcESaIcEEEN9benchmark7CounterEEC2IJOS5_EJEEESt21piecewise_construct_tSt5tupleIJDpT_EESD_IJDpT0_EE
FN:234,234,_ZNSt10_Head_baseILm0EPNSt7__cxx1112basic_stringIcSt11char_traitsIcESaIcEEELb0EE7_M_headERS7_
FN:234,234,_ZNSt10_Head_baseILm0EPNSt7__cxx1118basic_stringstreamIcSt11char_traitsIcESaIcEEELb0EE7_M_headERS7_
FN:237,237,_ZNSt10_Head_baseILm0EPNSt7__cxx1112basic_stringIcSt11char_traitsIcESaIcEEELb0EE7_M_headERKS7_
FN:237,237,_ZNSt10_Head_baseILm0EPNSt7__cxx1118basic_stringstreamIcSt11char_traitsIcESaIcEEELb0EE7_M_headERKS7_
FN:269,269,_ZNSt11_Tuple_implILm0EJPNSt7__cxx1112basic_stringIcSt11char_traitsIcESaIcEEESt14default_deleteIS5_EEE7_M_headERS9_
FN:269,269,_ZNSt11_Tuple_implILm0EJPNSt7__cxx1118basic_stringstreamIcSt11char_traitsIcESaIcEEESt14default_deleteIS5_EEE7_M_headERS9_
FN:272,272,_ZNSt11_Tuple_implILm0EJPNSt7__cxx1112basic_stringIcSt11char_traitsIcESaIcEEESt14default_deleteIS5_EEE7_M_headERKS9_
FN:272,272,_ZNSt11_Tuple_implILm0EJPNSt7__cxx1118basic_stringstreamIcSt11char_traitsIcESaIcEEESt14default_deleteIS5_EEE7_M_headERKS9_
FN:280,281,_ZNSt11_Tuple_implILm0EJPNSt7__cxx1112basic_stringIcSt11char_traitsIcESaIcEEESt14default_deleteIS5_EEEC2Ev
FN:497,497,_ZNSt11_Tuple_implILm1EJSt14default_deleteINSt7__cxx1112basic_stringIcSt11char_traitsIcESaIcEEEEEE7_M_headERS8_
FN:497,497,_ZNSt11_Tuple_implILm1EJSt14default_deleteINSt7__cxx1118basic_stringstreamIcSt11char_traitsIcESaIcEEEEEE7_M_headERS8_
FN:503,504,_ZNSt11_Tuple_implILm1EJSt14default_deleteINSt7__cxx1112basic_stringIcSt11char_traitsIcESaIcEEEEEEC2Ev
FN:81,82,_ZNSt10_Head_baseILm1ESt14default_deleteINSt7__cxx1112basic_stringIcSt11char_traitsIcESaIcEEEELb1EEC2Ev
FN:903,903,_ZNSt5tupleIJONSt7__cxx1112basic_stringIcSt11char_traitsIcESaIcEEEEEC2EOS7_
FNDA:0,_ZNSt10_Head_baseILm1ESt14default_deleteINSt7__cxx1112basic_stringIcSt11char_traitsIcESaIcEEEELb1EE7_M_headERS8_
FNDA:0,_ZNSt10_Head_baseILm1ESt14default_deleteINSt7__cxx1118basic_stringstreamIcSt11char_traitsIcESaIcEEEELb1EE7_M_headERS8_
FNDA:24,_ZNSt5tupleIJPNSt7__cxx1112basic_stringIcSt11char_traitsIcESaIcEEESt14default_deleteIS5_EEEC2ILb1ELb1EEEv
FNDA:167,_ZSt12__get_helperILm0EPNSt7__cxx1112basic_stringIcSt11char_traitsIcESaIcEEEJSt14default_deleteIS5_EEERT0_RSt11_Tuple_implIXT_EJS9_DpT1_EE
FNDA:0,_ZSt12__get_helperILm0EPNSt7__cxx1118basic_stringstreamIcSt11char_traitsIcESaIcEEEJSt14default_deleteIS5_EEERT0_RSt11_Tuple_implIXT_EJS9_DpT1_EE
FNDA:0,_ZSt12__get_helperILm1ESt14default_deleteINSt7__cxx1112basic_stringIcSt11char_traitsIcESaIcEEEEJEERT0_RSt11_Tuple_implIXT_EJS8_DpT1_EE
FNDA:0,_ZSt12__get_helperILm1ESt14default_deleteINSt7__cxx1118basic_stringstreamIcSt11char_traitsIcESaIcEEEEJEERT0_RSt11_Tuple_implIXT_EJS8_DpT1_EE
FNDA:0,_ZSt12__get_helperILm0EPNSt7__cxx1112basic_stringIcSt11char_traitsIcESaIcEEEJSt14default_deleteIS5_EEERKT0_RKSt11_Tuple_implIXT_EJS9_DpT1_EE
FNDA:0,_ZSt12__get_helperILm0EPNSt7__cxx1118basic_stringstreamIcSt11char_traitsIcESaIcEEEJSt14default_deleteIS5_EEERKT0_RKSt11_Tuple_implIXT_EJS9_DpT1_EE
FNDA:167,_ZSt3getILm0EJPNSt7__cxx1112basic_stringIcSt11char_traitsIcESaIcEEESt14default_deleteIS5_EEERNSt13tuple_elementIXT_ESt5tupleIJDpT0_EEE4typeERSD_
FNDA:0,_ZSt3getILm0EJPNSt7__cxx1118basic_stringstreamIcSt11char_traitsIcESaIcEEESt14default_deleteIS5_EEERNSt13tuple_elementIXT_ESt5tupleIJDpT0_EEE4typeERSD_
FNDA:0,_ZSt3getILm1EJPNSt7__cxx1112basic_stringIcSt11char_traitsIcESaIcEEESt14default_deleteIS5_EEERNSt13tuple_elementIXT_ESt5tupleIJDpT0_EEE4typeERSD_
FNDA:0,_ZSt3getILm1EJPNSt7__cxx1118basic_stringstreamIcSt11char_traitsIcESaIcEEESt14default_deleteIS5_EEERNSt13tuple_elementIXT_ESt5tupleIJDpT0_EEE4typeERSD_
FNDA:0,_ZSt3getILm0EJPNSt7__cxx1112basic_stringIcSt11char_traitsIcESaIcEEESt14default_deleteIS5_EEERKNSt13tuple_elementIXT_ESt5tupleIJDpT0_EEE4typeERKSD_
FNDA:0,_ZSt3getILm0EJPNSt7__cxx1118basic_stringstreamIcSt11char_traitsIcESaIcEEESt14default_deleteIS5_EEERKNSt13tuple_elementIXT_ESt5tupleIJDpT0_EEE4typeERKSD_
FNDA:24,_ZNSt10_Head_baseILm0EPNSt7__cxx1112basic_stringIcSt11char_traitsIcESaIcEEELb0EEC2Ev
FNDA:48,_ZNSt4pairIKNSt7__cxx1112basic_stringIcSt11char_traitsIcESaIcEEEN9benchmark7CounterEEC2IJOS5_EJEEESt21piecewise_construct_tSt5tupleIJDpT_EESD_IJDpT0_EE
FNDA:167,_ZNSt10_Head_baseILm0EPNSt7__cxx1112basic_stringIcSt11char_traitsIcESaIcEEELb0EE7_M_headERS7_
FNDA:0,_ZNSt10_Head_baseILm0EPNSt7__cxx1118basic_stringstreamIcSt11char_traitsIcESaIcEEELb0EE7_M_headERS7_
FNDA:0,_ZNSt10_Head_baseILm0EPNSt7__cxx1112basic_stringIcSt11char_traitsIcESaIcEEELb0EE7_M_headERKS7_
FNDA:0,_ZNSt10_Head_baseILm0EPNSt7__cxx1118basic_stringstreamIcSt11char_traitsIcESaIcEEELb0EE7_M_headERKS7_
FNDA:167,_ZNSt11_Tuple_implILm0EJPNSt7__cxx1112basic_stringIcSt11char_traitsIcESaIcEEESt14default_deleteIS5_EEE7_M_headERS9_
FNDA:0,_ZNSt11_Tuple_implILm0EJPNSt7__cxx1118basic_stringstreamIcSt11char_traitsIcESaIcEEESt14default_deleteIS5_EEE7_M_headERS9_
FNDA:0,_ZNSt11_Tuple_implILm0EJPNSt7__cxx1112basic_stringIcSt11char_traitsIcESaIcEEESt14default_deleteIS5_EEE7_M_headERKS9_
FNDA:0,_ZNSt11_Tuple_implILm0EJPNSt7__cxx1118basic_stringstreamIcSt11char_traitsIcESaIcEEESt14default_deleteIS5_EEE7_M_headERKS9_
FNDA:24,_ZNSt11_Tuple_implILm0EJPNSt7__cxx1112basic_stringIcSt11char_traitsIcESaIcEEESt14default_deleteIS5_EEEC2Ev
FNDA:0,_ZNSt11_Tuple_implILm1EJSt14default_deleteINSt7__cxx1112basic_stringIcSt11char_traitsIcESaIcEEEEEE7_M_headERS8_
FNDA:0,_ZNSt11_Tuple_implILm1EJSt14default_deleteINSt7__cxx1118basic_stringstreamIcSt11char_traitsIcESaIcEEEEEE7_M_headERS8_
FNDA:24,_ZNSt11_Tuple_implILm1EJSt14default_deleteINSt7__cxx1112basic_stringIcSt11char_traitsIcESaIcEEEEEEC2Ev
FNDA:24,_ZNSt10_Head_baseILm1ESt14default_deleteINSt7__cxx1112basic_stringIcSt11char_traitsIcESaIcEEEELb1EEC2Ev
FNDA:48,_ZNSt5tupleIJONSt7__cxx1112basic_stringIcSt11char_traitsIcESaIcEEEEEC2EOS7_
FNF:31
FNH:11
DA:81,24
DA:82,24
DA:125,0
DA:190,24
DA:191,24
DA:200,48
DA:201,48
DA:234,215
DA:237,0
DA:269,167
DA:272,0
DA:280,24
DA:281,24
DA:497,48
DA:503,24
DA:504,24
DA:513,48
DA:514,48
DA:527,48
DA:529,48
DA:889,48
DA:891,48
DA:903,48
DA:1317,24
DA:1319,24
DA:1787,215
DA:1788,215
DA:1792,0
DA:1793,0
DA:1803,215
DA:1804,215
DA:1809,0
DA:1810,0
DA:2013,48
DA:2014,48
DA:2252,48
DA:2257,48
DA:2258,48
DA:2264,48
DA:2267,48
DA:2268,48
LF:41
LH:34
end_of_record
TN:
SF:/usr/include/c++/13/typeinfo
FN:103,104,_ZNKSt9type_info4nameEv
FNDA:0,_ZNKSt9type_info4nameEv
FNF:1
FNH:0
DA:103,0
DA:104,0
LF:2
LH:0
end_of_record
TN:
SF:/usr/include/gtest/gtest-assertion-result.h
FN:155,161,_ZN7testing15AssertionResultC2IbEERKT_PNSt9enable_ifIXntsrSt14is_convertibleIS2_S0_E5valueEvE4typeE
FN:174,174,_ZNK7testing15AssertionResultcvbEv
FN:183,185,_ZNK7testing15AssertionResult7messageEv
FN:187,187,_ZNK7testing15AssertionResult15failure_messageEv
FN:191,194,_ZN7testing15AssertionResultlsIA12_cEERS0_RKT_
FN:191,194,_ZN7testing15AssertionResultlsIA3_cEERS0_RKT_
FN:191,194,_ZN7testing15AssertionResultlsIA5_cEERS0_RKT_
FN:191,194,_ZN7testing15AssertionResultlsINSt7__cxx1112basic_stringIcSt11char_traitsIcESaIcEEEEERS0_RKT_
FN:191,194,_ZN7testing15AssertionResultlsIPKcEERS0_RKT_
FN:206,209,_ZN7testing15AssertionResult13AppendMessageERKNS_7MessageE
FNDA:24,_ZN7testing15AssertionResultC2IbEERKT_PNSt9enable_ifIXntsrSt14is_convertibleIS2_S0_E5valueEvE4typeE
FNDA:167,_ZNK7testing15AssertionResultcvbEv
FNDA:0,_ZNK7testing15AssertionResult7messageEv
FNDA:0,_ZNK7testing15AssertionResult15failure_messageEv
FNDA:0,_ZN7testing15AssertionResultlsIA12_cEERS0_RKT_
FNDA:0,_ZN7testing15AssertionResultlsIA3_cEERS0_RKT_
FNDA:0,_ZN7testing15AssertionResultlsIA5_cEERS0_RKT_
FNDA:0,_ZN7testing15AssertionResultlsINSt7__cxx1112basic_stringIcSt11char_traitsIcESaIcEEEEERS0_RKT_
FNDA:0,_ZN7testing15AssertionResultlsIPKcEERS0_RKT_
FNDA:0,_ZN7testing15AssertionResult13AppendMessageERKNS_7MessageE
FNF:10
FNH:2
DA:155,24
DA:161,24
DA:174,167
DA:183,0
DA:184,0
DA:187,0
DA:191,0
DA:192,0
DA:193,0
DA:206,0
DA:207,0
DA:208,0
DA:209,0
LF:13
LH:3
end_of_record
TN:
SF:/usr/include/gtest/gtest-message.h
FN:132,150,_ZN7testing7MessagelsIA12_cEERS0_RKT_
FN:132,150,_ZN7testing7MessagelsIA38_cEERS0_RKT_
FN:132,150,_ZN7testing7MessagelsIA3_cEERS0_RKT_
FN:132,150,_ZN7testing7MessagelsIA44_cEERS0_RKT_
FN:132,150,_ZN7testing7MessagelsIA47_cEERS0_RKT_
FN:132,150,_ZN7testing7MessagelsIA50_cEERS0_RKT_
FN:132,150,_ZN7testing7MessagelsIA52_cEERS0_RKT_
FN:132,150,_ZN7testing7MessagelsIA5_cEERS0_RKT_
FN:132,150,_ZN7testing7MessagelsINSt7__cxx1112basic_stringIcSt11char_traitsIcESaIcEEEEERS0_RKT_
FN:182,189,_ZN7testing7MessagelsIKcEERS0_RKPT_
FNDA:0,_ZN7testing7MessagelsIA12_cEERS0_RKT_
FNDA:0,_ZN7testing7MessagelsIA38_cEERS0_RKT_
FNDA:0,_ZN7testing7MessagelsIA3_cEERS0_RKT_
FNDA:0,_ZN7testing7MessagelsIA44_cEERS0_RKT_
FNDA:0,_ZN7testing7MessagelsIA47_cEERS0_RKT_
FNDA:0,_ZN7testing7MessagelsIA50_cEERS0_RKT_
FNDA:0,_ZN7testing7MessagelsIA52_cEERS0_RKT_
FNDA:0,_ZN7testing7MessagelsIA5_cEERS0_RKT_
FNDA:0,_ZN7testing7MessagelsINSt7__cxx1112basic_stringIcSt11char_traitsIcESaIcEEEEERS0_RKT_
FNDA:0,_ZN7testing7MessagelsIKcEERS0_RKPT_
FNF:10
FNH:0
DA:132,0
DA:148,0
DA:149,0
DA:182,0
DA:183,0
DA:184,0
DA:186,0
DA:188,0
LF:8
LH:0
end_of_record
TN:
SF:/usr/include/gtest/gtest-printers.h
FN:1017,1023,_ZN7testing8internal21UniversalTersePrinterIPKcE5PrintES3_PSo
FN:1108,1113,_ZN7testing8internal14UniversalPrintIDnEEvRKT_PSo
FN:1108,1113,_ZN7testing8internal14UniversalPrintINSt7__cxx1112basic_stringIcSt11char_traitsIcESaIcEEEEEvRKT_PSo
FN:1108,1113,_ZN7testing8internal14UniversalPrintIPN16DoublyLinkedListIiE4NodeEEEvRKT_PSo
FN:1108,1113,_ZN7testing8internal14UniversalPrintIPN16SinglyLinkedListIiE4NodeEEEvRKT_PSo
FN:1108,1113,_ZN7testing8internal14UniversalPrintIiEEvRKT_PSo
FN:1108,1113,_ZN7testing8internal14UniversalPrintImEEvRKT_PSo
FN:1148,1152,_ZN7testing13PrintToStringIDnEENSt7__cxx1112basic_stringIcSt11char_traitsIcESaIcEEERKT_
FN:1148,1152,_ZN7testing13PrintToStringINSt7__cxx1112basic_stringIcSt11char_traitsIcESaIcEEEEES6_RKT_
FN:1148,1152,_ZN7testing13PrintToStringIPKcEENSt7__cxx1112basic_stringIcSt11char_traitsIcESaIcEEERKT_
FN:1148,1152,_ZN7testing13PrintToStringIPN16DoublyLinkedListIiE4NodeEEENSt7__cxx1112basic_stringIcSt11char_traitsIcESaIcEEERKT_
FN:1148,1152,_ZN7testing13PrintToStringIPN16SinglyLinkedListIiE4NodeEEENSt7__cxx1112basic_stringIcSt11char_traitsIcESaIcEEERKT_
FN:1148,1152,_ZN7testing13PrintToStringIiEENSt7__cxx1112basic_stringIcSt11char_traitsIcESaIcEEERKT_
FN:1148,1152,_ZN7testing13PrintToStringImEENSt7__cxx1112basic_stringIcSt11char_traitsIcESaIcEEERKT_
FN:190,199,_ZN7testing8internal14PointerPrinter10PrintValueIN16DoublyLinkedListIiE4NodeEEEvPT_PSo
FN:190,199,_ZN7testing8internal14PointerPrinter10PrintValueIN16SinglyLinkedListIiE4NodeEEEvPT_PSo
FN:221,226,_ZN7testing8internal52internal_stream_operator_without_lexical_name_lookup13StreamPrinter10PrintValueIivEEDTcvvlsdefp0_fp_ERKT_PSo
FN:221,226,_ZN7testing8internal52internal_stream_operator_without_lexical_name_lookup13StreamPrinter10PrintValueImvEEDTcvvlsdefp0_fp_ERKT_PSo
FN:326,337,_ZN7testing8internal17PrintWithFallbackIPN16DoublyLinkedListIiE4NodeEEEvRKT_PSo
FN:326,337,_ZN7testing8internal17PrintWithFallbackIPN16SinglyLinkedListIiE4NodeEEEvRKT_PSo
FN:326,337,_ZN7testing8internal17PrintWithFallbackIiEEvRKT_PSo
FN:326,337,_ZN7testing8internal17PrintWithFallbackImEEvRKT_PSo
FN:357,359,_ZN7testing8internal19FormatForComparisonIDnPN16DoublyLinkedListIiE4NodeEE6FormatB5cxx11ERKDn
FN:357,359,_ZN7testing8internal19FormatForComparisonIDnPN16SinglyLinkedListIiE4NodeEE6FormatB5cxx11ERKDn
FN:357,359,_ZN7testing8internal19FormatForComparisonINSt7__cxx1112basic_stringIcSt11char_traitsIcESaIcEEEA2_cE6FormatERKS7_
FN:357,359,_ZN7testing8internal19FormatForComparisonINSt7__cxx1112basic_stringIcSt11char_traitsIcESaIcEEEA42_cE6FormatERKS7_
FN:357,359,_ZN7testing8internal19FormatForComparisonINSt7__cxx1112basic_stringIcSt11char_traitsIcESaIcEEEA5_cE6FormatERKS7_
FN:357,359,_ZN7testing8internal19FormatForComparisonINSt7__cxx1112basic_stringIcSt11char_traitsIcESaIcEEEA7_cE6FormatERKS7_
FN:357,359,_ZN7testing8internal19FormatForComparisonIPN16DoublyLinkedListIiE4NodeEDnE6FormatB5cxx11ERKS5_
FN:357,359,_ZN7testing8internal19FormatForComparisonIPN16SinglyLinkedListIiE4NodeEDnE6FormatB5cxx11ERKS5_
FN:357,359,_ZN7testing8internal19FormatForComparisonIiiE6FormatB5cxx11ERKi
FN:357,359,_ZN7testing8internal19FormatForComparisonIimE6FormatB5cxx11ERKi
FN:357,359,_ZN7testing8internal19FormatForComparisonImiE6FormatB5cxx11ERKm
FN:357,359,_ZN7testing8internal19FormatForComparisonImmE6FormatB5cxx11ERKm
FN:366,368,_ZN7testing8internal19FormatForComparisonIA2_cNSt7__cxx1112basic_stringIcSt11char_traitsIcESaIcEEEE6FormatEPKc
FN:366,368,_ZN7testing8internal19FormatForComparisonIA42_cNSt7__cxx1112basic_stringIcSt11char_traitsIcESaIcEEEE6FormatEPKc
FN:366,368,_ZN7testing8internal19FormatForComparisonIA5_cNSt7__cxx1112basic_stringIcSt11char_traitsIcESaIcEEEE6FormatEPKc
FN:366,368,_ZN7testing8internal19FormatForComparisonIA7_cNSt7__cxx1112basic_stringIcSt11char_traitsIcESaIcEEEE6FormatEPKc
FN:411,411,_ZN7testing8internal19FormatForComparisonIPKcNSt7__cxx1112basic_stringIcSt11char_traitsIcESaIcEEEE6FormatES3_
FN:437,440,_ZN7testing8internal33FormatForComparisonFailureMessageIA2_cNSt7__cxx1112basic_stringIcSt11char_traitsIcESaIcEEEEES8_RKT_RKT0_
FN:437,440,_ZN7testing8internal33FormatForComparisonFailureMessageIA42_cNSt7__cxx1112basic_stringIcSt11char_traitsIcESaIcEEEEES8_RKT_RKT0_
FN:437,440,_ZN7testing8internal33FormatForComparisonFailureMessageIA5_cNSt7__cxx1112basic_stringIcSt11char_traitsIcESaIcEEEEES8_RKT_RKT0_
FN:437,440,_ZN7testing8internal33FormatForComparisonFailureMessageIA7_cNSt7__cxx1112basic_stringIcSt11char_traitsIcESaIcEEEEES8_RKT_RKT0_
FN:437,440,_ZN7testing8internal33FormatForComparisonFailureMessageIDnPN16DoublyLinkedListIiE4NodeEEENSt7__cxx1112basic_stringIcSt11char_traitsIcESaIcEEERKT_RKT0_
FN:437,440,_ZN7testing8internal33FormatForComparisonFailureMessageIDnPN16SinglyLinkedListIiE4NodeEEENSt7__cxx1112basic_stringIcSt11char_traitsIcESaIcEEERKT_RKT0_
FN:437,440,_ZN7testing8internal33FormatForComparisonFailureMessageINSt7__cxx1112basic_stringIcSt11char_traitsIcESaIcEEEA2_cEES7_RKT_RKT0_
FN:437,440,_ZN7testing8internal33FormatForComparisonFailureMessageINSt7__cxx1112basic_stringIcSt11char_traitsIcESaIcEEEA42_cEES7_RKT_RKT0_
FN:437,440,_ZN7testing8internal33FormatForComparisonFailureMessageINSt7__cxx1112basic_stringIcSt11char_traitsIcESaIcEEEA5_cEES7_RKT_RKT0_
FN:437,440,_ZN7testing8internal33FormatForComparisonFailureMessageINSt7__cxx1112basic_stringIcSt11char_traitsIcESaIcEEEA7_cEES7_RKT_RKT0_
FN:437,440,_ZN7testing8internal33FormatForComparisonFailureMessageIPN16DoublyLinkedListIiE4NodeEDnEENSt7__cxx1112basic_stringIcSt11char_traitsIcESaIcEEERKT_RKT0_
FN:437,440,_ZN7testing8internal33FormatForComparisonFailureMessageIPN16SinglyLinkedListIiE4NodeEDnEENSt7__cxx1112basic_stringIcSt11char_traitsIcESaIcEEERKT_RKT0_
FN:437,440,_ZN7testing8internal33FormatForComparisonFailureMessageIiiEENSt7__cxx1112basic_stringIcSt11char_traitsIcESaIcEEERKT_RKT0_
FN:437,440,_ZN7testing8internal33FormatForComparisonFailureMessageIimEENSt7__cxx1112basic_stringIcSt11char_traitsIcESaIcEEERKT_RKT0_
FN:437,440,_ZN7testing8internal33FormatForComparisonFailureMessageImiEENSt7__cxx1112basic_stringIcSt11char_traitsIcESaIcEEERKT_RKT0_
FN:437,440,_ZN7testing8internal33FormatForComparisonFailureMessageImmEENSt7__cxx1112basic_stringIcSt11char_traitsIcESaIcEEERKT_RKT0_
FN:464,466,_ZN7testing8internal7PrintToIPN16DoublyLinkedListIiE4NodeEEEvRKT_PSo
FN:464,466,_ZN7testing8internal7PrintToIPN16SinglyLinkedListIiE4NodeEEEvRKT_PSo
FN:464,466,_ZN7testing8internal7PrintToIiEEvRKT_PSo
FN:464,466,_ZN7testing8internal7PrintToImEEvRKT_PSo
FN:660,662,_ZN7testing8internal7PrintToERKNSt7__cxx1112basic_stringIcSt11char_traitsIcESaIcEEEPSo
FN:699,699,_ZN7testing8internal7PrintToEDnPSo
FN:799,809,_ZN7testing8internal16UniversalPrinterIDnE5PrintERKDnPSo
FN:799,809,_ZN7testing8internal16UniversalPrinterINSt7__cxx1112basic_stringIcSt11char_traitsIcESaIcEEEE5PrintERKS7_PSo
FN:799,809,_ZN7testing8internal16UniversalPrinterIPN16DoublyLinkedListIiE4NodeEE5PrintERKS5_PSo
FN:799,809,_ZN7testing8internal16UniversalPrinterIPN16SinglyLinkedListIiE4NodeEE5PrintERKS5_PSo
FN:799,809,_ZN7testing8internal16UniversalPrinterIiE5PrintERKiPSo
FN:799,809,_ZN7testing8internal16UniversalPrinterImE5PrintERKmPSo
FN:989,991,_ZN7testing8internal21UniversalTersePrinterIDnE5PrintERKDnPSo
FN:989,991,_ZN7testing8internal21UniversalTersePrinterINSt7__cxx1112basic_stringIcSt11char_traitsIcESaIcEEEE5PrintERKS7_PSo
FN:989,991,_ZN7testing8internal21UniversalTersePrinterIPN16DoublyLinkedListIiE4NodeEE5PrintERKS5_PSo
FN:989,991,_ZN7testing8internal21UniversalTersePrinterIPN16SinglyLinkedListIiE4NodeEE5PrintERKS5_PSo
FN:989,991,_ZN7testing8internal21UniversalTersePrinterIiE5PrintERKiPSo
FN:989,991,_ZN7testing8internal21UniversalTersePrinterImE5PrintERKmPSo
FNDA:0,_ZN7testing8internal21UniversalTersePrinterIPKcE5PrintES3_PSo
FNDA:0,_ZN7testing8internal14UniversalPrintIDnEEvRKT_PSo
FNDA:0,_ZN7testing8internal14UniversalPrintINSt7__cxx1112basic_stringIcSt11char_traitsIcESaIcEEEEEvRKT_PSo
FNDA:0,_ZN7testing8internal14UniversalPrintIPN16DoublyLinkedListIiE4NodeEEEvRKT_PSo
FNDA:0,_ZN7testing8internal14UniversalPrintIPN16SinglyLinkedListIiE4NodeEEEvRKT_PSo
FNDA:0,_ZN7testing8internal14UniversalPrintIiEEvRKT_PSo
FNDA:0,_ZN7testing8internal14UniversalPrintImEEvRKT_PSo
FNDA:0,_ZN7testing13PrintToStringIDnEENSt7__cxx1112basic_stringIcSt11char_traitsIcESaIcEEERKT_
FNDA:0,_ZN7testing13PrintToStringINSt7__cxx1112basic_stringIcSt11char_traitsIcESaIcEEEEES6_RKT_
FNDA:0,_ZN7testing13PrintToStringIPKcEENSt7__cxx1112basic_stringIcSt11char_traitsIcESaIcEEERKT_
FNDA:0,_ZN7testing13PrintToStringIPN16DoublyLinkedListIiE4NodeEEENSt7__cxx1112basic_stringIcSt11char_traitsIcESaIcEEERKT_
FNDA:0,_ZN7testing13PrintToStringIPN16SinglyLinkedListIiE4NodeEEENSt7__cxx1112basic_stringIcSt11char_traitsIcESaIcEEERKT_
FNDA:0,_ZN7testing13PrintToStringIiEENSt7__cxx1112basic_stringIcSt11char_traitsIcESaIcEEERKT_
FNDA:0,_ZN7testing13PrintToStringImEENSt7__cxx1112basic_stringIcSt11char_traitsIcESaIcEEERKT_
FNDA:0,_ZN7testing8internal14PointerPrinter10PrintValueIN16DoublyLinkedListIiE4NodeEEEvPT_PSo
FNDA:0,_ZN7testing8internal14PointerPrinter10PrintValueIN16SinglyLinkedListIiE4NodeEEEvPT_PSo
FNDA:0,_ZN7testing8internal52internal_stream_operator_without_lexical_name_lookup13StreamPrinter10PrintValueIivEEDTcvvlsdefp0_fp_ERKT_PSo
FNDA:0,_ZN7testing8internal52internal_stream_operator_without_lexical_name_lookup13StreamPrinter10PrintValueImvEEDTcvvlsdefp0_fp_ERKT_PSo
FNDA:0,_ZN7testing8internal17PrintWithFallbackIPN16DoublyLinkedListIiE4NodeEEEvRKT_PSo
FNDA:0,_ZN7testing8internal17PrintWithFallbackIPN16SinglyLinkedListIiE4NodeEEEvRKT_PSo
FNDA:0,_ZN7testing8internal17PrintWithFallbackIiEEvRKT_PSo
FNDA:0,_ZN7testing8internal17PrintWithFallbackImEEvRKT_PSo
FNDA:0,_ZN7testing8internal19FormatForComparisonIDnPN16DoublyLinkedListIiE4NodeEE6FormatB5cxx11ERKDn
FNDA:0,_ZN7testing8internal19FormatForComparisonIDnPN16SinglyLinkedListIiE4NodeEE6FormatB5cxx11ERKDn
FNDA:0,_ZN7testing8internal19FormatForComparisonINSt7__cxx1112basic_stringIcSt11char_traitsIcESaIcEEEA2_cE6FormatERKS7_
FNDA:0,_ZN7testing8internal19FormatForComparisonINSt7__cxx1112basic_stringIcSt11char_traitsIcESaIcEEEA42_cE6FormatERKS7_
FNDA:0,_ZN7testing8internal19FormatForComparisonINSt7__cxx1112basic_stringIcSt11char_traitsIcESaIcEEEA5_cE6FormatERKS7_
FNDA:0,_ZN7testing8internal19FormatForComparisonINSt7__cxx1112basic_stringIcSt11char_traitsIcESaIcEEEA7_cE6FormatERKS7_
FNDA:0,_ZN7testing8internal19FormatForComparisonIPN16DoublyLinkedListIiE4NodeEDnE6FormatB5cxx11ERKS5_
FNDA:0,_ZN7testing8internal19FormatForComparisonIPN16SinglyLinkedListIiE4NodeEDnE6FormatB5cxx11ERKS5_
FNDA:0,_ZN7testing8internal19FormatForComparisonIiiE6FormatB5cxx11ERKi
FNDA:0,_ZN7testing8internal19FormatForComparisonIimE6FormatB5cxx11ERKi
FNDA:0,_ZN7testing8internal19FormatForComparisonImiE6FormatB5cxx11ERKm
FNDA:0,_ZN7testing8internal19FormatForComparisonImmE6FormatB5cxx11ERKm
FNDA:0,_ZN7testing8internal19FormatForComparisonIA2_cNSt7__cxx1112basic_stringIcSt11char_traitsIcESaIcEEEE6FormatEPKc
FNDA:0,_ZN7testing8internal19FormatForComparisonIA42_cNSt7__cxx1112basic_stringIcSt11char_traitsIcESaIcEEEE6FormatEPKc
FNDA:0,_ZN7testing8internal19FormatForComparisonIA5_cNSt7__cxx1112basic_stringIcSt11char_traitsIcESaIcEEEE6FormatEPKc
FNDA:0,_ZN7testing8internal19FormatForComparisonIA7_cNSt7__cxx1112basic_stringIcSt11char_traitsIcESaIcEEEE6FormatEPKc
FNDA:0,_ZN7testing8internal19FormatForComparisonIPKcNSt7__cxx1112basic_stringIcSt11char_traitsIcESaIcEEEE6FormatES3_
FNDA:0,_ZN7testing8internal33FormatForComparisonFailureMessageIA2_cNSt7__cxx1112basic_stringIcSt11char_traitsIcESaIcEEEEES8_RKT_RKT0_
FNDA:0,_ZN7testing8internal33FormatForComparisonFailureMessageIA42_cNSt7__cxx1112basic_stringIcSt11char_traitsIcESaIcEEEEES8_RKT_RKT0_
FNDA:0,_ZN7testing8internal33FormatForComparisonFailureMessageIA5_cNSt7__cxx1112basic_stringIcSt11char_traitsIcESaIcEEEEES8_RKT_RKT0_
FNDA:0,_ZN7testing8internal33FormatForComparisonFailureMessageIA7_cNSt7__cxx1112basic_stringIcSt11char_traitsIcESaIcEEEEES8_RKT_RKT0_
FNDA:0,_ZN7testing8internal33FormatForComparisonFailureMessageIDnPN16DoublyLinkedListIiE4NodeEEENSt7__cxx1112basic_stringIcSt11char_traitsIcESaIcEEERKT_RKT0_
FNDA:0,_ZN7testing8internal33FormatForComparisonFailureMessageIDnPN16SinglyLinkedListIiE4NodeEEENSt7__cxx1112basic_stringIcSt11char_traitsIcESaIcEEERKT_RKT0_
FNDA:0,_ZN7testing8internal33FormatForComparisonFailureMessageINSt7__cxx1112basic_stringIcSt11char_traitsIcESaIcEEEA2_cEES7_RKT_RKT0_
FNDA:0,_ZN7testing8internal33FormatForComparisonFailureMessageINSt7__cxx1112basic_stringIcSt11char_traitsIcESaIcEEEA42_cEES7_RKT_RKT0_
FNDA:0,_ZN7testing8internal33FormatForComparisonFailureMessageINSt7__cxx1112basic_stringIcSt11char_traitsIcESaIcEEEA5_cEES7_RKT_RKT0_
FNDA:0,_ZN7testing8internal33FormatForComparisonFailureMessageINSt7__cxx1112basic_stringIcSt11char_traitsIcESaIcEEEA7_cEES7_RKT_RKT0_
FNDA:0,_ZN7testing8internal33FormatForComparisonFailureMessageIPN16DoublyLinkedListIiE4NodeEDnEENSt7__cxx1112basic_stringIcSt11char_traitsIcESaIcEEERKT_RKT0_
FNDA:0,_ZN7testing8internal33FormatForComparisonFailureMessageIPN16SinglyLinkedListIiE4NodeEDnEENSt7__cxx1112basic_stringIcSt11char_traitsIcESaIcEEERKT_RKT0_
FNDA:0,_ZN7testing8internal33FormatForComparisonFailureMessageIiiEENSt7__cxx1112basic_stringIcSt11char_traitsIcESaIcEEERKT_RKT0_
FNDA:0,_ZN7testing8internal33FormatForComparisonFailureMessageIimEENSt7__cxx1112basic_stringIcSt11char_traitsIcESaIcEEERKT_RKT0_
FNDA:0,_ZN7testing8internal33FormatForComparisonFailureMessageImiEENSt7__cxx1112basic_stringIcSt11char_traitsIcESaIcEEERKT_RKT0_
FNDA:0,_ZN7testing8internal33FormatForComparisonFailureMessageImmEENSt7__cxx1112basic_stringIcSt11char_traitsIcESaIcEEERKT_RKT0_
FNDA:0,_ZN7testing8internal7PrintToIPN16DoublyLinkedListIiE4NodeEEEvRKT_PSo
FNDA:0,_ZN7testing8internal7PrintToIPN16SinglyLinkedListIiE4NodeEEEvRKT_PSo
FNDA:0,_ZN7testing8internal7PrintToIiEEvRKT_PSo
FNDA:0,_ZN7testing8internal7PrintToImEEvRKT_PSo
FNDA:0,_ZN7testing8internal7PrintToERKNSt7__cxx1112basic_stringIcSt11char_traitsIcESaIcEEEPSo
FNDA:0,_ZN7testing8internal7PrintToEDnPSo
FNDA:0,_ZN7testing8internal16UniversalPrinterIDnE5PrintERKDnPSo
FNDA:0,_ZN7testing8internal16UniversalPrinterINSt7__cxx1112basic_stringIcSt11char_traitsIcESaIcEEEE5PrintERKS7_PSo
FNDA:0,_ZN7testing8internal16UniversalPrinterIPN16DoublyLinkedListIiE4NodeEE5PrintERKS5_PSo
FNDA:0,_ZN7testing8internal16UniversalPrinterIPN16SinglyLinkedListIiE4NodeEE5PrintERKS5_PSo
FNDA:0,_ZN7testing8internal16UniversalPrinterIiE5PrintERKiPSo
FNDA:0,_ZN7testing8internal16UniversalPrinterImE5PrintERKmPSo
FNDA:0,_ZN7testing8internal21UniversalTersePrinterIDnE5PrintERKDnPSo
FNDA:0,_ZN7testing8internal21UniversalTersePrinterINSt7__cxx1112basic_stringIcSt11char_traitsIcESaIcEEEE5PrintERKS7_PSo
FNDA:0,_ZN7testing8internal21UniversalTersePrinterIPN16DoublyLinkedListIiE4NodeEE5PrintERKS5_PSo
FNDA:0,_ZN7testing8internal21UniversalTersePrinterIPN16SinglyLinkedListIiE4NodeEE5PrintERKS5_PSo
FNDA:0,_ZN7testing8internal21UniversalTersePrinterIiE5PrintERKiPSo
FNDA:0,_ZN7testing8internal21UniversalTersePrinterImE5PrintERKmPSo
FNF:73
FNH:0
DA:190,0
DA:191,0
DA:192,0
DA:197,0
DA:199,0
DA:221,0
DA:225,0
DA:226,0
DA:326,0
DA:336,0
DA:337,0
DA:357,0
DA:358,0
DA:366,0
DA:367,0
DA:411,0
DA:437,0
DA:439,0
DA:464,0
DA:465,0
DA:466,0
DA:660,0
DA:661,0
DA:662,0
DA:699,0
DA:799,0
DA:808,0
DA:809,0
DA:989,0
DA:990,0
DA:991,0
DA:1017,0
DA:1018,0
DA:1019,0
DA:1021,0
DA:1023,0
DA:1108,0
DA:1112,0
DA:1113,0
DA:1148,0
DA:1149,0
DA:1150,0
DA:1151,0
DA:1152,0
LF:44
LH:0
end_of_record
TN:
SF:/usr/include/gtest/gtest.h
FN:1359,1365,_ZN7testing8internal18CmpHelperEQFailureINSt7__cxx1112basic_stringIcSt11char_traitsIcESaIcEEEA2_cEENS_15AssertionResultEPKcSB_RKT_RKT0_
FN:1359,1365,_ZN7testing8internal18CmpHelperEQFailureINSt7__cxx1112basic_stringIcSt11char_traitsIcESaIcEEEA42_cEENS_15AssertionResultEPKcSB_RKT_RKT0_
FN:1359,1365,_ZN7testing8internal18CmpHelperEQFailureINSt7__cxx1112basic_stringIcSt11char_traitsIcESaIcEEEA5_cEENS_15AssertionResultEPKcSB_RKT_RKT0_
FN:1359,1365,_ZN7testing8internal18CmpHelperEQFailureINSt7__cxx1112basic_stringIcSt11char_traitsIcESaIcEEEA7_cEENS_15AssertionResultEPKcSB_RKT_RKT0_
FN:1359,1365,_ZN7testing8internal18CmpHelperEQFailureIPN16DoublyLinkedListIiE4NodeEDnEENS_15AssertionResultEPKcS8_RKT_RKT0_
FN:1359,1365,_ZN7testing8internal18CmpHelperEQFailureIPN16SinglyLinkedListIiE4NodeEDnEENS_15AssertionResultEPKcS8_RKT_RKT0_
FN:1359,1365,_ZN7testing8internal18CmpHelperEQFailureIiiEENS_15AssertionResultEPKcS4_RKT_RKT0_
FN:1359,1365,_ZN7testing8internal18CmpHelperEQFailureImiEENS_15AssertionResultEPKcS4_RKT_RKT0_
FN:1376,1384,_ZN7testing8internal11CmpHelperEQINSt7__cxx1112basic_stringIcSt11char_traitsIcESaIcEEEA2_cEENS_15AssertionResultEPKcSB_RKT_RKT0_
FN:1376,1384,_ZN7testing8internal11CmpHelperEQINSt7__cxx1112basic_stringIcSt11char_traitsIcESaIcEEEA42_cEENS_15AssertionResultEPKcSB_RKT_RKT0_
FN:1376,1384,_ZN7testing8internal11CmpHelperEQINSt7__cxx1112basic_stringIcSt11char_traitsIcESaIcEEEA5_cEENS_15AssertionResultEPKcSB_RKT_RKT0_
FN:1376,1384,_ZN7testing8internal11CmpHelperEQINSt7__cxx1112basic_stringIcSt11char_traitsIcESaIcEEEA7_cEENS_15AssertionResultEPKcSB_RKT_RKT0_
FN:1376,1384,_ZN7testing8internal11CmpHelperEQIPN16DoublyLinkedListIiE4NodeEDnEENS_15AssertionResultEPKcS8_RKT_RKT0_
FN:1376,1384,_ZN7testing8internal11CmpHelperEQIPN16SinglyLinkedListIiE4NodeEDnEENS_15AssertionResultEPKcS8_RKT_RKT0_
FN:1376,1384,_ZN7testing8internal11CmpHelperEQIiiEENS_15AssertionResultEPKcS4_RKT_RKT0_
FN:1376,1384,_ZN7testing8internal11CmpHelperEQImiEENS_15AssertionResultEPKcS4_RKT_RKT0_
FN:1395,1399,_ZN7testing8internal8EqHelper7CompareINSt7__cxx1112basic_stringIcSt11char_traitsIcESaIcEEEA2_cLPv0EEENS_15AssertionResultEPKcSD_RKT_RKT0_
FN:1395,1399,_ZN7testing8internal8EqHelper7CompareINSt7__cxx1112basic_stringIcSt11char_traitsIcESaIcEEEA42_cLPv0EEENS_15AssertionResultEPKcSD_RKT_RKT0_
FN:1395,1399,_ZN7testing8internal8EqHelper7CompareINSt7__cxx1112basic_stringIcSt11char_traitsIcESaIcEEEA5_cLPv0EEENS_15AssertionResultEPKcSD_RKT_RKT0_
FN:1395,1399,_ZN7testing8internal8EqHelper7CompareINSt7__cxx1112basic_stringIcSt11char_traitsIcESaIcEEEA7_cLPv0EEENS_15AssertionResultEPKcSD_RKT_RKT0_
FN:1395,1399,_ZN7testing8internal8EqHelper7CompareIPN16DoublyLinkedListIiE4NodeEDnLPv0EEENS_15AssertionResultEPKcSA_RKT_RKT0_
FN:1395,1399,_ZN7testing8internal8EqHelper7CompareIPN16SinglyLinkedListIiE4NodeEDnLPv0EEENS_15AssertionResultEPKcSA_RKT_RKT0_
FN:1395,1399,_ZN7testing8internal8EqHelper7CompareIiiLPv0EEENS_15AssertionResultEPKcS6_RKT_RKT0_
FN:1395,1399,_ZN7testing8internal8EqHelper7CompareImiLPv0EEENS_15AssertionResultEPKcS6_RKT_RKT0_
FN:1428,1435,_ZN7testing8internal18CmpHelperOpFailureIPN16DoublyLinkedListIiE4NodeEDnEENS_15AssertionResultEPKcS8_RKT_RKT0_S8_
FN:1428,1435,_ZN7testing8internal18CmpHelperOpFailureIPN16SinglyLinkedListIiE4NodeEDnEENS_15AssertionResultEPKcS8_RKT_RKT0_S8_
FN:1428,1435,_ZN7testing8internal18CmpHelperOpFailureImmEENS_15AssertionResultEPKcS4_RKT_RKT0_S4_
FN:1457,1457,_ZN7testing8internal11CmpHelperNEIPN16DoublyLinkedListIiE4NodeEDnEENS_15AssertionResultEPKcS8_RKT_RKT0_
FN:1457,1457,_ZN7testing8internal11CmpHelperNEIPN16SinglyLinkedListIiE4NodeEDnEENS_15AssertionResultEPKcS8_RKT_RKT0_
FN:1457,1457,_ZN7testing8internal11CmpHelperNEImmEENS_15AssertionResultEPKcS4_RKT_RKT0_
FN:256,256,_ZN7testing4Test14SetUpTestSuiteEv
FN:264,264,_ZN7testing4Test17TearDownTestSuiteEv
FN:269,269,_ZN7testing4Test16TearDownTestCaseEv
FN:270,270,_ZN7testing4Test13SetUpTestCaseEv
FN:357,357,_ZN7testing4Test5SetupEv
FNDA:0,_ZN7testing8internal18CmpHelperEQFailureINSt7__cxx1112basic_stringIcSt11char_traitsIcESaIcEEEA2_cEENS_15AssertionResultEPKcSB_RKT_RKT0_
FNDA:0,_ZN7testing8internal18CmpHelperEQFailureINSt7__cxx1112basic_stringIcSt11char_traitsIcESaIcEEEA42_cEENS_15AssertionResultEPKcSB_RKT_RKT0_
FNDA:0,_ZN7testing8internal18CmpHelperEQFailureINSt7__cxx1112basic_stringIcSt11char_traitsIcESaIcEEEA5_cEENS_15AssertionResultEPKcSB_RKT_RKT0_
FNDA:0,_ZN7testing8internal18CmpHelperEQFailureINSt7__cxx1112basic_stringIcSt11char_traitsIcESaIcEEEA7_cEENS_15AssertionResultEPKcSB_RKT_RKT0_
FNDA:0,_ZN7testing8internal18CmpHelperEQFailureIPN16DoublyLinkedListIiE4NodeEDnEENS_15AssertionResultEPKcS8_RKT_RKT0_
FNDA:0,_ZN7testing8internal18CmpHelperEQFailureIPN16SinglyLinkedListIiE4NodeEDnEENS_15AssertionResultEPKcS8_RKT_RKT0_
FNDA:0,_ZN7testing8internal18CmpHelperEQFailureIiiEENS_15AssertionResultEPKcS4_RKT_RKT0_
FNDA:0,_ZN7testing8internal18CmpHelperEQFailureImiEENS_15AssertionResultEPKcS4_RKT_RKT0_
FNDA:1,_ZN7testing8internal11CmpHelperEQINSt7__cxx1112basic_stringIcSt11char_traitsIcESaIcEEEA2_cEENS_15AssertionResultEPKcSB_RKT_RKT0_
FNDA:1,_ZN7testing8internal11CmpHelperEQINSt7__cxx1112basic_stringIcSt11char_traitsIcESaIcEEEA42_cEENS_15AssertionResultEPKcSB_RKT_RKT0_
FNDA:2,_ZN7testing8internal11CmpHelperEQINSt7__cxx1112basic_stringIcSt11char_traitsIcESaIcEEEA5_cEENS_15AssertionResultEPKcSB_RKT_RKT0_
FNDA:1,_ZN7testing8internal11CmpHelperEQINSt7__cxx1112basic_stringIcSt11char_traitsIcESaIcEEEA7_cEENS_15AssertionResultEPKcSB_RKT_RKT0_
FNDA:4,_ZN7testing8internal11CmpHelperEQIPN16DoublyLinkedListIiE4NodeEDnEENS_15AssertionResultEPKcS8_RKT_RKT0_
FNDA:4,_ZN7testing8internal11CmpHelperEQIPN16SinglyLinkedListIiE4NodeEDnEENS_15AssertionResultEPKcS8_RKT_RKT0_
FNDA:49,_ZN7testing8internal11CmpHelperEQIiiEENS_15AssertionResultEPKcS4_RKT_RKT0_
FNDA:57,_ZN7testing8internal11CmpHelperEQImiEENS_15AssertionResultEPKcS4_RKT_RKT0_
FNDA:1,_ZN7testing8internal8EqHelper7CompareINSt7__cxx1112basic_stringIcSt11char_traitsIcESaIcEEEA2_cLPv0EEENS_15AssertionResultEPKcSD_RKT_RKT0_
FNDA:1,_ZN7testing8internal8EqHelper7CompareINSt7__cxx1112basic_stringIcSt11char_traitsIcESaIcEEEA42_cLPv0EEENS_15AssertionResultEPKcSD_RKT_RKT0_
FNDA:2,_ZN7testing8internal8EqHelper7CompareINSt7__cxx1112basic_stringIcSt11char_traitsIcESaIcEEEA5_cLPv0EEENS_15AssertionResultEPKcSD_RKT_RKT0_
FNDA:1,_ZN7testing8internal8EqHelper7CompareINSt7__cxx1112basic_stringIcSt11char_traitsIcESaIcEEEA7_cLPv0EEENS_15AssertionResultEPKcSD_RKT_RKT0_
FNDA:4,_ZN7testing8internal8EqHelper7CompareIPN16DoublyLinkedListIiE4NodeEDnLPv0EEENS_15AssertionResultEPKcSA_RKT_RKT0_
FNDA:4,_ZN7testing8internal8EqHelper7CompareIPN16SinglyLinkedListIiE4NodeEDnLPv0EEENS_15AssertionResultEPKcSA_RKT_RKT0_
FNDA:49,_ZN7testing8internal8EqHelper7CompareIiiLPv0EEENS_15AssertionResultEPKcS6_RKT_RKT0_
FNDA:57,_ZN7testing8internal8EqHelper7CompareImiLPv0EEENS_15AssertionResultEPKcS6_RKT_RKT0_
FNDA:0,_ZN7testing8internal18CmpHelperOpFailureIPN16DoublyLinkedListIiE4NodeEDnEENS_15AssertionResultEPKcS8_RKT_RKT0_S8_
FNDA:0,_ZN7testing8internal18CmpHelperOpFailureIPN16SinglyLinkedListIiE4NodeEDnEENS_15AssertionResultEPKcS8_RKT_RKT0_S8_
FNDA:0,_ZN7testing8internal18CmpHelperOpFailureImmEENS_15AssertionResultEPKcS4_RKT_RKT0_S4_
FNDA:1,_ZN7testing8internal11CmpHelperNEIPN16DoublyLinkedListIiE4NodeEDnEENS_15AssertionResultEPKcS8_RKT_RKT0_
FNDA:7,_ZN7testing8internal11CmpHelperNEIPN16SinglyLinkedListIiE4NodeEDnEENS_15AssertionResultEPKcS8_RKT_RKT0_
FNDA:16,_ZN7testing8internal11CmpHelperNEImmEENS_15AssertionResultEPKcS4_RKT_RKT0_
FNDA:0,_ZN7testing4Test14SetUpTestSuiteEv
FNDA:0,_ZN7testing4Test17TearDownTestSuiteEv
FNDA:0,_ZN7testing4Test16TearDownTestCaseEv
FNDA:0,_ZN7testing4Test13SetUpTestCaseEv
FNDA:0,_ZN7testing4Test5SetupEv
FNF:35
FNH:19
DA:256,0
DA:264,0
DA:269,0
DA:270,0
DA:357,0
DA:1359,0
DA:1364,0
DA:1376,119
DA:1379,119
DA:1380,119
DA:1383,0
DA:1395,119
DA:1398,119
DA:1428,0
DA:1432,0
DA:1433,0
DA:1434,0
DA:1457,24
LF:18
LH:6
end_of_record
TN:
SF:/usr/include/gtest/internal/gtest-internal.h
FN:438,438,_ZN7testing8internal15TestFactoryBaseD0Ev
FN:438,438,_ZN7testing8internal15TestFactoryBaseD2Ev
FN:445,445,_ZN7testing8internal15TestFactoryBaseC2Ev
FN:457,457,_ZN7testing8internal15TestFactoryImplI18QueueTest_Pop_TestE10CreateTestEv
FN:457,457,_ZN7testing8internal15TestFactoryImplI18StackTest_Pop_TestE10CreateTestEv
FN:457,457,_ZN7testing8internal15TestFactoryImplI19StackTest_Peek_TestE10CreateTestEv
FN:457,457,_ZN7testing8internal15TestFactoryImplI22QueueTest_GetSize_TestE10CreateTestEv
FN:457,457,_ZN7testing8internal15TestFactoryImplI23QueueTest_EmptyPop_TestE10CreateTestEv
FN:457,457,_ZN7testing8internal15TestFactoryImplI23StackTest_Overflow_TestE10CreateTestEv
FN:457,457,_ZN7testing8internal15TestFactoryImplI23StackTest_PopEmpty_TestE10CreateTestEv
FN:457,457,_ZN7testing8internal15TestFactoryImplI24Queue2Test_SizeTest_TestE10CreateTestEv
FN:457,457,_ZN7testing8internal15TestFactoryImplI24QueueTest_TestPrint_TestE10CreateTestEv
FN:457,457,_ZN7testing8internal15TestFactoryImplI24StackTest_PeekEmpty_TestE10CreateTestEv
FN:457,457,_ZN7testing8internal15TestFactoryImplI24StackTest_TestPrint_TestE10CreateTestEv
FN:457,457,_ZN7testing8internal15TestFactoryImplI25ArrayTest_GetAtWorks_TestE10CreateTestEv
FN:457,457,_ZN7testing8internal15TestFactoryImplI25StackTest_SaveToFile_TestE10CreateTestEv
FN:457,457,_ZN7testing8internal15TestFactoryImplI26StackTest_Constructor_TestE10CreateTestEv
FN:457,457,_ZN7testing8internal15TestFactoryImplI26StackTest_PushAndSize_TestE10CreateTestEv
FN:457,457,_ZN7testing8internal15TestFactoryImplI27Queue2Test_PushPopTest_TestE10CreateTestEv
FN:457,457,_ZN7testing8internal15TestFactoryImplI27StackTest_LoadFromFile_TestE10CreateTestEv
FN:457,457,_ZN7testing8internal15TestFactoryImplI28ArrayTest_InsertAtWorks_TestE10CreateTestEv
FN:457,457,_ZN7testing8internal15TestFactoryImplI28ArrayTest_RemoveAtWorks_TestE10CreateTestEv
FN:457,457,_ZN7testing8internal15TestFactoryImplI28HashTableTest_TestPrint_TestE10CreateTestEv
FN:457,457,_ZN7testing8internal15TestFactoryImplI29ArrayTest_ReplaceAtWorks_TestE10CreateTestEv
FN:457,457,_ZN7testing8internal15TestFactoryImplI29LinkedListTest_TestPrint_TestE10CreateTestEv
FN:457,457,_ZN7testing8internal15TestFactoryImplI30ArrayTest_SaveToFileWorks_TestE10CreateTestEv
FN:457,457,_ZN7testing8internal15TestFactoryImplI30DoublyLinkedListTest_Find_TestE10CreateTestEv
FN:457,457,_ZN7testing8internal15TestFactoryImplI30HashTableTest_UpdateValue_TestE10CreateTestEv
FN:457,457,_ZN7testing8internal15TestFactoryImplI30Queue2Test_EmptyQueueTest_TestE10CreateTestEv
FN:457,457,_ZN7testing8internal15TestFactoryImplI30SinglyLinkedListTest_Find_TestE10CreateTestEv
FN:457,457,_ZN7testing8internal15TestFactoryImplI31HashTableTest_InsertAndGet_TestE10CreateTestEv
FN:457,457,_ZN7testing8internal15TestFactoryImplI31SinglyLinkedListTest_Print_TestE10CreateTestEv
FN:457,457,_ZN7testing8internal15TestFactoryImplI32ArrayTest_LoadFromFileWorks_TestE10CreateTestEv
FN:457,457,_ZN7testing8internal15TestFactoryImplI32DoublyLinkedListTest_Remove_TestE10CreateTestEv
FN:457,457,_ZN7testing8internal15TestFactoryImplI32HashTableTest_RemoveElement_TestE10CreateTestEv
FN:457,457,_ZN7testing8internal15TestFactoryImplI32QueueTest_FrontValueOnEmpty_TestE10CreateTestEv
FN:457,457,_ZN7testing8internal15TestFactoryImplI32QueueTest_PushAndFrontValue_TestE10CreateTestEv
FN:457,457,_ZN7testing8internal15TestFactoryImplI32SinglyLinkedListTest_Remove_TestE10CreateTestEv
FN:457,457,_ZN7testing8internal15TestFactoryImplI33DoublyLinkedListTest_PopBack_TestE10CreateTestEv
FN:457,457,_ZN7testing8internal15TestFactoryImplI33SinglyLinkedListTest_GetSize_TestE10CreateTestEv
FN:457,457,_ZN7testing8internal15TestFactoryImplI33SinglyLinkedListTest_PopBack_TestE10CreateTestEv
FN:457,457,_ZN7testing8internal15TestFactoryImplI34DoublyLinkedListTest_PopFront_TestE10CreateTestEv
FN:457,457,_ZN7testing8internal15TestFactoryImplI34DoublyLinkedListTest_PushBack_TestE10CreateTestEv
FN:457,457,_ZN7testing8internal15TestFactoryImplI34DoublyLinkedListTest_SaveLoad_TestE10CreateTestEv
FN:457,457,_ZN7testing8internal15TestFactoryImplI34QueueTest_SaveAndLoadFromFile_TestE10CreateTestEv
FN:457,457,_ZN7testing8internal15TestFactoryImplI34SinglyLinkedListTest_PopFront_TestE10CreateTestEv
FN:457,457,_ZN7testing8internal15TestFactoryImplI34SinglyLinkedListTest_PushBack_TestE10CreateTestEv
FN:457,457,_ZN7testing8internal15TestFactoryImplI35CompleteBinaryTreeTest_AddTest_TestE10CreateTestEv
FN:457,457,_ZN7testing8internal15TestFactoryImplI35DoublyLinkedListTest_PushFront_TestE10CreateTestEv
FN:457,457,_ZN7testing8internal15TestFactoryImplI35DoublyLinkedListTest_TestPrint_TestE10CreateTestEv
FN:457,457,_ZN7testing8internal15TestFactoryImplI35HashTableTest_HandleCollisions_TestE10CreateTestEv
FN:457,457,_ZN7testing8internal15TestFactoryImplI35Queue2Test_PopOnEmptyQueueTest_TestE10CreateTestEv
FN:457,457,_ZN7testing8internal15TestFactoryImplI35Queue2Test_PushPopSequenceTest_TestE10CreateTestEv
FN:457,457,_ZN7testing8internal15TestFactoryImplI35SinglyLinkedListTest_PushFront_TestE10CreateTestEv
FN:457,457,_ZN7testing8internal15TestFactoryImplI37CompleteBinaryTreeTest_TestPrint_TestE10CreateTestEv
FN:457,457,_ZN7testing8internal15TestFactoryImplI37DoublyLinkedListTest_Constructor_TestE10CreateTestEv
FN:457,457,_ZN7testing8internal15TestFactoryImplI37Queue2Test_FrontOnEmptyQueueTest_TestE10CreateTestEv
FN:457,457,_ZN7testing8internal15TestFactoryImplI38CompleteBinaryTreeTest_RemoveTest_TestE10CreateTestEv
FN:457,457,_ZN7testing8internal15TestFactoryImplI38HashTableTest_SaveAndLoadFromFile_TestE10CreateTestEv
FN:457,457,_ZN7testing8internal15TestFactoryImplI39ArrayTest_InsertAtThrowsOnOverflow_TestE10CreateTestEv
FN:457,457,_ZN7testing8internal15TestFactoryImplI39ArrayTest_PushBackThrowsOnOverflow_TestE10CreateTestEv
FN:457,457,_ZN7testing8internal15TestFactoryImplI40CompleteBinaryTreeTest_LoadSaveTest_TestE10CreateTestEv
FN:457,457,_ZN7testing8internal15TestFactoryImplI43ArrayTest_RemoveAtThrowsOnInvalidIndex_TestE10CreateTestEv
FN:457,457,_ZN7testing8internal15TestFactoryImplI45CompleteBinaryTreeTest_LoadEmptyFileTest_TestE10CreateTestEv
FN:457,457,_ZN7testing8internal15TestFactoryImplI45SinglyLinkedListTest_SaveAndLoadFromFile_TestE10CreateTestEv
FN:457,457,_ZN7testing8internal15TestFactoryImplI46CompleteBinaryTreeTest_IsCompleteTreeTest_TestE10CreateTestEv
FN:457,457,_ZN7testing8internal15TestFactoryImplI48CompleteBinaryTreeTest_RemoveSingleNodeTest_TestE10CreateTestEv
FN:457,457,_ZN7testing8internal15TestFactoryImplI49CompleteBinaryTreeTest_AddToCompleteTreeTest_TestE10CreateTestEv
FN:457,457,_ZN7testing8internal15TestFactoryImplI51CompleteBinaryTreeTest_AddMultipleElementsTest_TestE10CreateTestEv
FN:457,457,_ZN7testing8internal15TestFactoryImplI51CompleteBinaryTreeTest_FindNonExistentNodeTest_TestE10CreateTestEv
FN:457,457,_ZN7testing8internal15TestFactoryImplI53CompleteBinaryTreeTest_RemoveNonExistentNodeTest_TestE10CreateTestEv
FN:457,457,_ZN7testing8internal15TestFactoryImplI57CompleteBinaryTreeTest_IsCompleteTreeWithOneNodeTest_TestE10CreateTestEv
FN:478,479,_ZN7testing8internal12CodeLocationC2ERKNSt7__cxx1112basic_stringIcSt11char_traitsIcESaIcEEEi
FN:491,494,_ZN7testing8internal19GetNotDefaultOrNullEPFvvES2_
FN:506,525,_ZN7testing8internal16SuiteApiResolverINS_4TestEE19GetSetUpCaseOrSuiteEPKci
FN:527,546,_ZN7testing8internal16SuiteApiResolverINS_4TestEE22GetTearDownCaseOrSuiteEPKci
FN:843,843,_ZN7testing8internal14TrueWithStringC2Ev
FN:846,846,_ZNK7testing8internal14TrueWithStringcvbEv
FNDA:0,_ZN7testing8internal15TestFactoryBaseD0Ev
FNDA:69,_ZN7testing8internal15TestFactoryBaseD2Ev
FNDA:69,_ZN7testing8internal15TestFactoryBaseC2Ev
FNDA:1,_ZN7testing8internal15TestFactoryImplI18QueueTest_Pop_TestE10CreateTestEv
FNDA:1,_ZN7testing8internal15TestFactoryImplI18StackTest_Pop_TestE10CreateTestEv
FNDA:1,_ZN7testing8internal15TestFactoryImplI19StackTest_Peek_TestE10CreateTestEv
FNDA:1,_ZN7testing8internal15TestFactoryImplI22QueueTest_GetSize_TestE10CreateTestEv
FNDA:1,_ZN7testing8internal15TestFactoryImplI23QueueTest_EmptyPop_TestE10CreateTestEv
FNDA:1,_ZN7testing8internal15TestFactoryImplI23StackTest_Overflow_TestE10CreateTestEv
FNDA:1,_ZN7testing8internal15TestFactoryImplI23StackTest_PopEmpty_TestE10CreateTestEv
FNDA:1,_ZN7testing8internal15TestFactoryImplI24Queue2Test_SizeTest_TestE10CreateTestEv
FNDA:1,_ZN7testing8internal15TestFactoryImplI24QueueTest_TestPrint_TestE10CreateTestEv
FNDA:1,_ZN7testing8internal15TestFactoryImplI24StackTest_PeekEmpty_TestE10CreateTestEv
FNDA:1,_ZN7testing8internal15TestFactoryImplI24StackTest_TestPrint_TestE10CreateTestEv
FNDA:1,_ZN7testing8internal15TestFactoryImplI25ArrayTest_GetAtWorks_TestE10CreateTestEv
FNDA:1,_ZN7testing8internal15TestFactoryImplI25StackTest_SaveToFile_TestE10CreateTestEv
FNDA:1,_ZN7testing8internal15TestFactoryImplI26StackTest_Constructor_TestE10CreateTestEv
FNDA:1,_ZN7testing8internal15TestFactoryImplI26StackTest_PushAndSize_TestE10CreateTestEv
FNDA:1,_ZN7testing8internal15TestFactoryImplI27Queue2Test_PushPopTest_TestE10CreateTestEv
FNDA:1,_ZN7testing8internal15TestFactoryImplI27StackTest_LoadFromFile_TestE10CreateTestEv
FNDA:1,_ZN7testing8internal15TestFactoryImplI28ArrayTest_InsertAtWorks_TestE10CreateTestEv
FNDA:1,_ZN7testing8internal15TestFactoryImplI28ArrayTest_RemoveAtWorks_TestE10CreateTestEv
FNDA:1,_ZN7testing8internal15TestFactoryImplI28HashTableTest_TestPrint_TestE10CreateTestEv
FNDA:1,_ZN7testing8internal15TestFactoryImplI29ArrayTest_ReplaceAtWorks_TestE10CreateTestEv
FNDA:1,_ZN7testing8internal15TestFactoryImplI29LinkedListTest_TestPrint_TestE10CreateTestEv
FNDA:1,_ZN7testing8internal15TestFactoryImplI30ArrayTest_SaveToFileWorks_TestE10CreateTestEv
FNDA:1,_ZN7testing8internal15TestFactoryImplI30DoublyLinkedListTest_Find_TestE10CreateTestEv
FNDA:1,_ZN7testing8internal15TestFactoryImplI30HashTableTest_UpdateValue_TestE10CreateTestEv
FNDA:1,_ZN7testing8internal15TestFactoryImplI30Queue2Test_EmptyQueueTest_TestE10CreateTestEv
FNDA:1,_ZN7testing8internal15TestFactoryImplI30SinglyLinkedListTest_Find_TestE10CreateTestEv
FNDA:1,_ZN7testing8internal15TestFactoryImplI31HashTableTest_InsertAndGet_TestE10CreateTestEv
FNDA:1,_ZN7testing8internal15TestFactoryImplI31SinglyLinkedListTest_Print_TestE10CreateTestEv
FNDA:1,_ZN7testing8internal15TestFactoryImplI32ArrayTest_LoadFromFileWorks_TestE10CreateTestEv
FNDA:1,_ZN7testing8internal15TestFactoryImplI32DoublyLinkedListTest_Remove_TestE10CreateTestEv
FNDA:1,_ZN7testing8internal15TestFactoryImplI32HashTableTest_RemoveElement_TestE10CreateTestEv
FNDA:1,_ZN7testing8internal15TestFactoryImplI32QueueTest_FrontValueOnEmpty_TestE10CreateTestEv
FNDA:1,_ZN7testing8internal15TestFactoryImplI32QueueTest_PushAndFrontValue_TestE10CreateTestEv
FNDA:1,_ZN7testing8internal15TestFactoryImplI32SinglyLinkedListTest_Remove_TestE10CreateTestEv
FNDA:1,_ZN7testing8internal15TestFactoryImplI33DoublyLinkedListTest_PopBack_TestE10CreateTestEv
FNDA:1,_ZN7testing8internal15TestFactoryImplI33SinglyLinkedListTest_GetSize_TestE10CreateTestEv
FNDA:1,_ZN7testing8internal15TestFactoryImplI33SinglyLinkedListTest_PopBack_TestE10CreateTestEv
FNDA:1,_ZN7testing8internal15TestFactoryImplI34DoublyLinkedListTest_PopFront_TestE10CreateTestEv
FNDA:1,_ZN7testing8internal15TestFactoryImplI34DoublyLinkedListTest_PushBack_TestE10CreateTestEv
FNDA:1,_ZN7testing8internal15TestFactoryImplI34DoublyLinkedListTest_SaveLoad_TestE10CreateTestEv
FNDA:1,_ZN7testing8internal15TestFactoryImplI34QueueTest_SaveAndLoadFromFile_TestE10CreateTestEv
FNDA:1,_ZN7testing8internal15TestFactoryImplI34SinglyLinkedListTest_PopFront_TestE10CreateTestEv
FNDA:1,_ZN7testing8internal15TestFactoryImplI34SinglyLinkedListTest_PushBack_TestE10CreateTestEv
FNDA:1,_ZN7testing8internal15TestFactoryImplI35CompleteBinaryTreeTest_AddTest_TestE10CreateTestEv
FNDA:1,_ZN7testing8internal15TestFactoryImplI35DoublyLinkedListTest_PushFront_TestE10CreateTestEv
FNDA:1,_ZN7testing8internal15TestFactoryImplI35DoublyLinkedListTest_TestPrint_TestE10CreateTestEv
FNDA:1,_ZN7testing8internal15TestFactoryImplI35HashTableTest_HandleCollisions_TestE10CreateTestEv
FNDA:1,_ZN7testing8internal15TestFactoryImplI35Queue2Test_PopOnEmptyQueueTest_TestE10CreateTestEv
FNDA:1,_ZN7testing8internal15TestFactoryImplI35Queue2Test_PushPopSequenceTest_TestE10CreateTestEv
FNDA:1,_ZN7testing8internal15TestFactoryImplI35SinglyLinkedListTest_PushFront_TestE10CreateTestEv
FNDA:1,_ZN7testing8internal15TestFactoryImplI37CompleteBinaryTreeTest_TestPrint_TestE10CreateTestEv
FNDA:1,_ZN7testing8internal15TestFactoryImplI37DoublyLinkedListTest_Constructor_TestE10CreateTestEv
FNDA:1,_ZN7testing8internal15TestFactoryImplI37Queue2Test_FrontOnEmptyQueueTest_TestE10CreateTestEv
FNDA:1,_ZN7testing8internal15TestFactoryImplI38CompleteBinaryTreeTest_RemoveTest_TestE10CreateTestEv
FNDA:1,_ZN7testing8internal15TestFactoryImplI38HashTableTest_SaveAndLoadFromFile_TestE10CreateTestEv
FNDA:1,_ZN7testing8internal15TestFactoryImplI39ArrayTest_InsertAtThrowsOnOverflow_TestE10CreateTestEv
FNDA:1,_ZN7testing8internal15TestFactoryImplI39ArrayTest_PushBackThrowsOnOverflow_TestE10CreateTestEv
FNDA:1,_ZN7testing8internal15TestFactoryImplI40CompleteBinaryTreeTest_LoadSaveTest_TestE10CreateTestEv
FNDA:1,_ZN7testing8internal15TestFactoryImplI43ArrayTest_RemoveAtThrowsOnInvalidIndex_TestE10CreateTestEv
FNDA:1,_ZN7testing8internal15TestFactoryImplI45CompleteBinaryTreeTest_LoadEmptyFileTest_TestE10CreateTestEv
FNDA:1,_ZN7testing8internal15TestFactoryImplI45SinglyLinkedListTest_SaveAndLoadFromFile_TestE10CreateTestEv
FNDA:1,_ZN7testing8internal15TestFactoryImplI46CompleteBinaryTreeTest_IsCompleteTreeTest_TestE10CreateTestEv
FNDA:1,_ZN7testing8internal15TestFactoryImplI48CompleteBinaryTreeTest_RemoveSingleNodeTest_TestE10CreateTestEv
FNDA:1,_ZN7testing8internal15TestFactoryImplI49CompleteBinaryTreeTest_AddToCompleteTreeTest_TestE10CreateTestEv
FNDA:1,_ZN7testing8internal15TestFactoryImplI51CompleteBinaryTreeTest_AddMultipleElementsTest_TestE10CreateTestEv
FNDA:1,_ZN7testing8internal15TestFactoryImplI51CompleteBinaryTreeTest_FindNonExistentNodeTest_TestE10CreateTestEv
FNDA:1,_ZN7testing8internal15TestFactoryImplI53CompleteBinaryTreeTest_RemoveNonExistentNodeTest_TestE10CreateTestEv
FNDA:1,_ZN7testing8internal15TestFactoryImplI57CompleteBinaryTreeTest_IsCompleteTreeWithOneNodeTest_TestE10CreateTestEv
FNDA:69,_ZN7testing8internal12CodeLocationC2ERKNSt7__cxx1112basic_stringIcSt11char_traitsIcESaIcEEEi
FNDA:276,_ZN7testing8internal19GetNotDefaultOrNullEPFvvES2_
FNDA:69,_ZN7testing8internal16SuiteApiResolverINS_4TestEE19GetSetUpCaseOrSuiteEPKci
FNDA:69,_ZN7testing8internal16SuiteApiResolverINS_4TestEE22GetTearDownCaseOrSuiteEPKci
FNDA:16,_ZN7testing8internal14TrueWithStringC2Ev
FNDA:16,_ZNK7testing8internal14TrueWithStringcvbEv
FNF:78
FNH:77
DA:438,69
DA:445,69
DA:457,69
DA:478,69
DA:479,69
DA:491,276
DA:493,276
DA:506,69
DA:510,69
DA:512,69
DA:514,69
DA:517,0
DA:519,69
DA:527,69
DA:531,69
DA:533,69
DA:535,69
DA:538,0
DA:540,69
DA:843,16
DA:846,16
LF:21
LH:19
end_of_record
TN:
SF:/usr/include/gtest/internal/gtest-port.h
FN:1042,1042,_ZN7testing8internal8GTestLog9GetStreamEv
FNDA:0,_ZN7testing8internal8GTestLog9GetStreamEv
FNF:1
FNH:0
DA:1042,0
LF:1
LH:0
end_of_record
TN:
SF:/usr/include/gtest/internal/gtest-type-util.h
FN:61,87,_ZN7testing8internal31CanonicalizeForStdLibVersioningENSt7__cxx1112basic_stringIcSt11char_traitsIcESaIcEEE
FN:91,121,_ZN7testing8internal11GetTypeNameB5cxx11ERKSt9type_info
FNDA:0,_ZN7testing8internal31CanonicalizeForStdLibVersioningENSt7__cxx1112basic_stringIcSt11char_traitsIcESaIcEEE
FNDA:0,_ZN7testing8internal11GetTypeNameB5cxx11ERKSt9type_info
FNF:2
FNH:0
DA:61,0
DA:63,0
DA:64,0
DA:65,0
DA:67,0
DA:75,0
DA:78,0
DA:79,0
DA:80,0
DA:83,0
DA:84,0
DA:86,0
DA:91,0
DA:92,0
DA:94,0
DA:100,0
DA:101,0
DA:102,0
DA:103,0
DA:121,0
LF:20
LH:0
end_of_record
TN:
SF:/usr/include/x86_64-linux-gnu/c++/13/bits/c++config.h
FN:540,551,_ZSt23__is_constant_evaluatedv
FNDA:125,_ZSt23__is_constant_evaluatedv
FNF:1
FNH:1
DA:540,125
DA:547,125
LF:2
LH:2
end_of_record
