TN:
SF:/home/Vlad/Documents/VC Code/SecondSemestr/Lab_3/include/array.h
FN:19,21,_ZN5ArrayIiEC2Em
FN:23,25,_ZN5ArrayIiED2Ev
FN:28,33,_ZN5ArrayIiE9push_backERKi
FN:36,45,_ZN5ArrayIiE9insert_atEmRKi
FN:48,56,_ZN5ArrayIiE9remove_atEm
FN:59,64,_ZN5ArrayIiE10replace_atEmRKi
FN:67,72,_ZNK5ArrayIiE6get_atEm
FN:75,77,_ZNK5ArrayIiE4sizeEv
FN:80,92,_ZNK5ArrayIiE17save_to_text_fileERKNSt7__cxx1112basic_stringIcSt11char_traitsIcESaIcEEE
FN:95,106,_ZN5ArrayIiE19load_from_text_fileERKNSt7__cxx1112basic_stringIcSt11char_traitsIcESaIcEEE
FNDA:82670487,_ZN5ArrayIiEC2Em
FNDA:9,_ZN5ArrayIiED2Ev
FNDA:7842433058,_ZN5ArrayIiE9push_backERKi
FNDA:22711390,_ZN5ArrayIiE9insert_atEmRKi
FNDA:22354655,_ZN5ArrayIiE9remove_atEm
FNDA:1,_ZN5ArrayIiE10replace_atEmRKi
FNDA:7,_ZNK5ArrayIiE6get_atEm
FNDA:3,_ZNK5ArrayIiE4sizeEv
FNDA:2,_ZNK5ArrayIiE17save_to_text_fileERKNSt7__cxx1112basic_stringIcSt11char_traitsIcESaIcEEE
FNDA:1,_ZN5ArrayIiE19load_from_text_fileERKNSt7__cxx1112basic_stringIcSt11char_traitsIcESaIcEEE
FNF:10
FNH:10
DA:19,82670487
DA:20,82670487
DA:21,82670487
DA:23,82670487
DA:24,82670487
DA:25,82670487
DA:28,7842433058
DA:29,7842433058
DA:30,1
DA:32,7842433057
DA:33,7842433057
DA:36,22711390
DA:37,22711390
DA:38,1
DA:40,1053268497
DA:41,1030557108
DA:43,22711389
DA:44,22711389
DA:45,22711389
DA:48,22354655
DA:49,22354655
DA:50,1
DA:52,1015059212
DA:53,992704558
DA:55,22354654
DA:56,22354654
DA:59,1
DA:60,1
DA:61,0
DA:63,1
DA:64,1
DA:67,7
DA:68,7
DA:69,0
DA:71,7
DA:75,3
DA:76,3
DA:80,2
DA:81,2
DA:82,2
DA:84,2
DA:85,6
DA:86,4
DA:88,2
DA:90,0
DA:92,2
DA:95,1
DA:96,1
DA:97,1
DA:98,1
DA:99,4
DA:100,3
DA:102,1
DA:104,0
DA:106,1
LF:55
LH:51
end_of_record
TN:
SF:/home/Vlad/Documents/VC Code/SecondSemestr/Lab_3/include/completetree.h
FN:119,158,_ZNK18CompleteBinaryTreeIiE17is_complete_queueEv
FN:165,174,_ZNK18CompleteBinaryTreeIiE9find_nodeEPNS0_4NodeERKi
FN:17,17,_ZN6Queue2IPN18CompleteBinaryTreeIiE4NodeEE4NodeC2ERKS3_
FN:17,17,_ZN6Queue2IiE4NodeC2ERKi
FN:177,182,_ZN18CompleteBinaryTreeIiE5clearEPNS0_4NodeE
FN:185,190,_ZN18CompleteBinaryTreeIiE15load_from_queueER6Queue2IiE
FN:193,193,_ZN18CompleteBinaryTreeIiEC2Ev
FN:195,197,_ZN18CompleteBinaryTreeIiED2Ev
FN:200,209,_ZN18CompleteBinaryTreeIiE3addERKi
FN:212,273,_ZN18CompleteBinaryTreeIiE6removeERKi
FN:25,25,_ZN6Queue2IPN18CompleteBinaryTreeIiE4NodeEEC2Ev
FN:25,25,_ZN6Queue2IiEC2Ev
FN:27,31,_ZN6Queue2IPN18CompleteBinaryTreeIiE4NodeEED2Ev
FN:27,31,_ZN6Queue2IiED2Ev
FN:276,278,_ZNK18CompleteBinaryTreeIiE4findERKi
FN:281,283,_ZNK18CompleteBinaryTreeIiE16is_complete_treeEv
FN:286,301,_ZNK18CompleteBinaryTreeIiE5printEv
FN:305,307,_ZNK18CompleteBinaryTreeIiE8get_sizeEv
FN:310,323,_ZN18CompleteBinaryTreeIiE14load_from_fileERKNSt7__cxx1112basic_stringIcSt11char_traitsIcESaIcEEE
FN:327,345,_ZNK18CompleteBinaryTreeIiE12save_to_fileERKNSt7__cxx1112basic_stringIcSt11char_traitsIcESaIcEEE
FN:34,43,_ZN6Queue2IPN18CompleteBinaryTreeIiE4NodeEE4pushERKS3_
FN:34,43,_ZN6Queue2IiE4pushERKi
FN:46,53,_ZN6Queue2IPN18CompleteBinaryTreeIiE4NodeEE3popEv
FN:46,53,_ZN6Queue2IiE3popEv
FN:56,59,_ZN6Queue2IPN18CompleteBinaryTreeIiE4NodeEE5frontEv
FN:56,59,_ZN6Queue2IiE5frontEv
FN:67,69,_ZNK6Queue2IPN18CompleteBinaryTreeIiE4NodeEE8is_emptyEv
FN:67,69,_ZNK6Queue2IiE8is_emptyEv
FN:72,74,_ZNK6Queue2IiE8get_sizeEv
FN:85,85,_ZN18CompleteBinaryTreeIiE4NodeC2ERKi
FN:92,116,_ZN18CompleteBinaryTreeIiE8add_nodeEPNS0_4NodeE
FNDA:3,_ZNK18CompleteBinaryTreeIiE17is_complete_queueEv
FNDA:1550549455,_ZNK18CompleteBinaryTreeIiE9find_nodeEPNS0_4NodeERKi
FNDA:5052,_ZN6Queue2IPN18CompleteBinaryTreeIiE4NodeEE4NodeC2ERKS3_
FNDA:13,_ZN6Queue2IiE4NodeC2ERKi
FNDA:76119,_ZN18CompleteBinaryTreeIiE5clearEPNS0_4NodeE
FNDA:1,_ZN18CompleteBinaryTreeIiE15load_from_queueER6Queue2IiE
FNDA:13,_ZN18CompleteBinaryTreeIiEC2Ev
FNDA:13,_ZN18CompleteBinaryTreeIiED2Ev
FNDA:47028,_ZN18CompleteBinaryTreeIiE3addERKi
FNDA:9003,_ZN18CompleteBinaryTreeIiE6removeERKi
FNDA:133,_ZN6Queue2IPN18CompleteBinaryTreeIiE4NodeEEC2Ev
FNDA:7,_ZN6Queue2IiEC2Ev
FNDA:133,_ZN6Queue2IPN18CompleteBinaryTreeIiE4NodeEED2Ev
FNDA:7,_ZN6Queue2IiED2Ev
FNDA:13,_ZNK18CompleteBinaryTreeIiE4findERKi
FNDA:3,_ZNK18CompleteBinaryTreeIiE16is_complete_treeEv
FNDA:1,_ZNK18CompleteBinaryTreeIiE5printEv
FNDA:5,_ZNK18CompleteBinaryTreeIiE8get_sizeEv
FNDA:2,_ZN18CompleteBinaryTreeIiE14load_from_fileERKNSt7__cxx1112basic_stringIcSt11char_traitsIcESaIcEEE
FNDA:1,_ZNK18CompleteBinaryTreeIiE12save_to_fileERKNSt7__cxx1112basic_stringIcSt11char_traitsIcESaIcEEE
FNDA:161617530,_ZN6Queue2IPN18CompleteBinaryTreeIiE4NodeEE4pushERKS3_
FNDA:13,_ZN6Queue2IiE4pushERKi
FNDA:161617530,_ZN6Queue2IPN18CompleteBinaryTreeIiE4NodeEE3popEv
FNDA:15,_ZN6Queue2IiE3popEv
FNDA:82845517,_ZN6Queue2IPN18CompleteBinaryTreeIiE4NodeEE5frontEv
FNDA:13,_ZN6Queue2IiE5frontEv
FNDA:12812,_ZNK6Queue2IPN18CompleteBinaryTreeIiE4NodeEE8is_emptyEv
FNDA:42,_ZNK6Queue2IiE8is_emptyEv
FNDA:14,_ZNK6Queue2IiE8get_sizeEv
FNDA:138,_ZN18CompleteBinaryTreeIiE4NodeC2ERKi
FNDA:46962,_ZN18CompleteBinaryTreeIiE8add_nodeEPNS0_4NodeE
FNF:31
FNH:31
DA:17,161617543
DA:25,55949
DA:27,9113
DA:28,78836935
DA:29,78772013
DA:31,46976
DA:34,161617543
DA:35,161617543
DA:36,161617543
DA:37,111823
DA:39,161505720
DA:40,161505720
DA:42,161617543
DA:43,161617543
DA:46,161617545
DA:47,5067
DA:48,161617543
DA:49,161617543
DA:50,161617543
DA:51,161617543
DA:52,161617543
DA:53,161617543
DA:56,82845530
DA:57,2582
DA:58,82845528
DA:67,406145540
DA:68,323293619
DA:72,14
DA:73,14
DA:85,47028
DA:92,46962
DA:93,46962
DA:94,46962
DA:96,78795520
DA:97,78795520
DA:98,78795520
DA:101,78795520
DA:102,23510
DA:103,23510
DA:105,78772010
DA:109,78772010
DA:110,23452
DA:111,23452
DA:113,78748558
DA:116,126
DA:119,3
DA:120,3
DA:122,3
DA:123,3
DA:124,3
DA:126,13
DA:127,11
DA:128,11
DA:131,11
DA:132,0
DA:133,0
DA:137,11
DA:138,6
DA:139,0
DA:141,6
DA:143,5
DA:147,11
DA:148,6
DA:149,1
DA:151,5
DA:153,5
DA:157,2
DA:158,3
DA:165,1550549455
DA:166,2867563853
DA:168,1550549368
DA:170,1452623219
DA:171,1452623219
DA:173,1317014481
DA:177,76119
DA:178,76119
DA:179,38026
DA:180,38026
DA:181,38026
DA:185,1
DA:186,4
DA:187,3
DA:188,3
DA:190,1
DA:193,67
DA:195,67
DA:196,67
DA:197,67
DA:200,47028
DA:201,47028
DA:202,47028
DA:203,66
DA:205,46962
DA:208,47028
DA:209,47028
DA:212,9003
DA:213,9003
DA:214,0
DA:218,9003
DA:219,28
DA:220,28
DA:221,28
DA:222,28
DA:225,8975
DA:226,8975
DA:228,2
DA:229,2
DA:230,2
DA:233,4058953
DA:234,4049978
DA:235,4049978
DA:237,4049978
DA:238,8974
DA:241,4049978
DA:242,2022752
DA:243,2022752
DA:244,2022752
DA:247,4049978
DA:248,2018251
DA:249,2018251
DA:250,2018251
DA:255,8975
DA:256,1
DA:260,8974
DA:261,8974
DA:263,8974
DA:264,4474
DA:265,4474
DA:267,4500
DA:268,4500
DA:272,8974
DA:273,8975
DA:276,97926153
DA:277,97926153
DA:281,3
DA:282,3
DA:286,1
DA:287,1
DA:289,1
DA:290,1
DA:292,7
DA:293,5
DA:294,5
DA:295,5
DA:297,5
DA:298,5
DA:300,1
DA:301,1
DA:305,14064187465
DA:306,14064187465
DA:310,2
DA:311,2
DA:312,2
DA:313,1
DA:315,4
DA:316,3
DA:318,1
DA:319,1
DA:320,1
DA:321,1
DA:323,2
DA:327,1
DA:328,1
DA:329,1
DA:330,1
DA:331,1
DA:333,5
DA:334,3
DA:335,3
DA:336,3
DA:338,3
DA:339,3
DA:341,1
DA:342,1
DA:343,0
DA:345,1
LF:176
LH:171
end_of_record
TN:
SF:/home/Vlad/Documents/VC Code/SecondSemestr/Lab_3/include/hashtable.h
FN:101,107,_ZNK10LinkedListINSt7__cxx1112basic_stringIcSt11char_traitsIcESaIcEEEiE12save_to_fileERSt14basic_ofstreamIcS3_E
FN:146,152,_ZNK9HashTableINSt7__cxx1112basic_stringIcSt11char_traitsIcESaIcEEEiE4hashERKS5_
FN:154,156,_ZNK9HashTableIiNSt7__cxx1112basic_stringIcSt11char_traitsIcESaIcEEEE4hashEi
FN:154,156,_ZNK9HashTableIiiE4hashEi
FN:154,156,_ZNK9HashTableImNSt7__cxx1112basic_stringIcSt11char_traitsIcESaIcEEEE4hashEi
FN:159,161,_ZN9HashTableINSt7__cxx1112basic_stringIcSt11char_traitsIcESaIcEEEiEC2Em
FN:159,161,_ZN9HashTableIiNSt7__cxx1112basic_stringIcSt11char_traitsIcESaIcEEEEC2Em
FN:159,161,_ZN9HashTableIiiEC2Em
FN:159,161,_ZN9HashTableImNSt7__cxx1112basic_stringIcSt11char_traitsIcESaIcEEEEC2Em
FN:163,165,_ZN9HashTableINSt7__cxx1112basic_stringIcSt11char_traitsIcESaIcEEEiED2Ev
FN:163,165,_ZN9HashTableIiNSt7__cxx1112basic_stringIcSt11char_traitsIcESaIcEEEED2Ev
FN:163,165,_ZN9HashTableIiiED2Ev
FN:163,165,_ZN9HashTableImNSt7__cxx1112basic_stringIcSt11char_traitsIcESaIcEEEED2Ev
FN:167,173,_ZN9HashTableINSt7__cxx1112basic_stringIcSt11char_traitsIcESaIcEEEiE6insertERKS5_RKi
FN:167,173,_ZN9HashTableIiNSt7__cxx1112basic_stringIcSt11char_traitsIcESaIcEEEE6insertERKiRKS5_
FN:167,173,_ZN9HashTableIiiE6insertERKiS2_
FN:167,173,_ZN9HashTableImNSt7__cxx1112basic_stringIcSt11char_traitsIcESaIcEEEE6insertERKmRKS5_
FN:175,178,_ZNK9HashTableINSt7__cxx1112basic_stringIcSt11char_traitsIcESaIcEEEiE3getERKS5_
FN:175,178,_ZNK9HashTableIiiE3getERKi
FN:175,178,_ZNK9HashTableImNSt7__cxx1112basic_stringIcSt11char_traitsIcESaIcEEEE3getERKm
FN:18,18,_ZN10LinkedListINSt7__cxx1112basic_stringIcSt11char_traitsIcESaIcEEEiE4NodeC2ERKS5_RKi
FN:18,18,_ZN10LinkedListIiNSt7__cxx1112basic_stringIcSt11char_traitsIcESaIcEEEE4NodeC2ERKiRKS5_
FN:18,18,_ZN10LinkedListIiiE4NodeC2ERKiS3_
FN:18,18,_ZN10LinkedListImNSt7__cxx1112basic_stringIcSt11char_traitsIcESaIcEEEE4NodeC2ERKmRKS5_
FN:180,186,_ZN9HashTableINSt7__cxx1112basic_stringIcSt11char_traitsIcESaIcEEEiE6removeERKS5_
FN:180,186,_ZN9HashTableIiiE6removeERKi
FN:188,193,_ZNK9HashTableIiNSt7__cxx1112basic_stringIcSt11char_traitsIcESaIcEEEE5printEv
FN:195,197,_ZNK9HashTableINSt7__cxx1112basic_stringIcSt11char_traitsIcESaIcEEEiE8get_sizeEv
FN:199,211,_ZN9HashTableINSt7__cxx1112basic_stringIcSt11char_traitsIcESaIcEEEiE14load_from_fileERKS5_
FN:213,224,_ZNK9HashTableINSt7__cxx1112basic_stringIcSt11char_traitsIcESaIcEEEiE12save_to_fileERKS5_
FN:24,24,_ZN10LinkedListINSt7__cxx1112basic_stringIcSt11char_traitsIcESaIcEEEiEC2Ev
FN:24,24,_ZN10LinkedListIiNSt7__cxx1112basic_stringIcSt11char_traitsIcESaIcEEEEC2Ev
FN:24,24,_ZN10LinkedListIiiEC2Ev
FN:24,24,_ZN10LinkedListImNSt7__cxx1112basic_stringIcSt11char_traitsIcESaIcEEEEC2Ev
FN:26,33,_ZN10LinkedListINSt7__cxx1112basic_stringIcSt11char_traitsIcESaIcEEEiED2Ev
FN:26,33,_ZN10LinkedListIiNSt7__cxx1112basic_stringIcSt11char_traitsIcESaIcEEEED2Ev
FN:26,33,_ZN10LinkedListIiiED2Ev
FN:26,33,_ZN10LinkedListImNSt7__cxx1112basic_stringIcSt11char_traitsIcESaIcEEEED2Ev
FN:35,47,_ZN10LinkedListINSt7__cxx1112basic_stringIcSt11char_traitsIcESaIcEEEiE11insert_listERKS5_RKi
FN:35,47,_ZN10LinkedListIiNSt7__cxx1112basic_stringIcSt11char_traitsIcESaIcEEEE11insert_listERKiRKS5_
FN:35,47,_ZN10LinkedListIiiE11insert_listERKiS2_
FN:35,47,_ZN10LinkedListImNSt7__cxx1112basic_stringIcSt11char_traitsIcESaIcEEEE11insert_listERKmRKS5_
FN:49,58,_ZNK10LinkedListINSt7__cxx1112basic_stringIcSt11char_traitsIcESaIcEEEiE8get_listERKS5_
FN:49,58,_ZNK10LinkedListIiiE8get_listERKi
FN:49,58,_ZNK10LinkedListImNSt7__cxx1112basic_stringIcSt11char_traitsIcESaIcEEEE8get_listERKm
FN:60,79,_ZN10LinkedListINSt7__cxx1112basic_stringIcSt11char_traitsIcESaIcEEEiE11remove_listERKS5_
FN:60,79,_ZN10LinkedListIiiE11remove_listERKi
FN:81,88,_ZNK10LinkedListIiNSt7__cxx1112basic_stringIcSt11char_traitsIcESaIcEEEE5printEv
FN:90,99,_ZNK10LinkedListINSt7__cxx1112basic_stringIcSt11char_traitsIcESaIcEEEiE8containsERKS5_
FN:90,99,_ZNK10LinkedListIiNSt7__cxx1112basic_stringIcSt11char_traitsIcESaIcEEEE8containsERKi
FN:90,99,_ZNK10LinkedListIiiE8containsERKi
FN:90,99,_ZNK10LinkedListImNSt7__cxx1112basic_stringIcSt11char_traitsIcESaIcEEEE8containsERKm
FNDA:10,_ZNK10LinkedListINSt7__cxx1112basic_stringIcSt11char_traitsIcESaIcEEEiE12save_to_fileERSt14basic_ofstreamIcS3_E
FNDA:15,_ZNK9HashTableINSt7__cxx1112basic_stringIcSt11char_traitsIcESaIcEEEiE4hashERKS5_
FNDA:3,_ZNK9HashTableIiNSt7__cxx1112basic_stringIcSt11char_traitsIcESaIcEEEE4hashEi
FNDA:4,_ZNK9HashTableIiiE4hashEi
FNDA:4,_ZNK9HashTableImNSt7__cxx1112basic_stringIcSt11char_traitsIcESaIcEEEE4hashEi
FNDA:4,_ZN9HashTableINSt7__cxx1112basic_stringIcSt11char_traitsIcESaIcEEEiEC2Em
FNDA:1,_ZN9HashTableIiNSt7__cxx1112basic_stringIcSt11char_traitsIcESaIcEEEEC2Em
FNDA:73,_ZN9HashTableIiiEC2Em
FNDA:1,_ZN9HashTableImNSt7__cxx1112basic_stringIcSt11char_traitsIcESaIcEEEEC2Em
FNDA:4,_ZN9HashTableINSt7__cxx1112basic_stringIcSt11char_traitsIcESaIcEEEiED2Ev
FNDA:1,_ZN9HashTableIiNSt7__cxx1112basic_stringIcSt11char_traitsIcESaIcEEEED2Ev
FNDA:73,_ZN9HashTableIiiED2Ev
FNDA:1,_ZN9HashTableImNSt7__cxx1112basic_stringIcSt11char_traitsIcESaIcEEEED2Ev
FNDA:9,_ZN9HashTableINSt7__cxx1112basic_stringIcSt11char_traitsIcESaIcEEEiE6insertERKS5_RKi
FNDA:3,_ZN9HashTableIiNSt7__cxx1112basic_stringIcSt11char_traitsIcESaIcEEEE6insertERKiRKS5_
FNDA:1196851022,_ZN9HashTableIiiE6insertERKiS2_
FNDA:2,_ZN9HashTableImNSt7__cxx1112basic_stringIcSt11char_traitsIcESaIcEEEE6insertERKmRKS5_
FNDA:4,_ZNK9HashTableINSt7__cxx1112basic_stringIcSt11char_traitsIcESaIcEEEiE3getERKS5_
FNDA:2,_ZNK9HashTableIiiE3getERKi
FNDA:2,_ZNK9HashTableImNSt7__cxx1112basic_stringIcSt11char_traitsIcESaIcEEEE3getERKm
FNDA:8,_ZN10LinkedListINSt7__cxx1112basic_stringIcSt11char_traitsIcESaIcEEEiE4NodeC2ERKS5_RKi
FNDA:6,_ZN10LinkedListIiNSt7__cxx1112basic_stringIcSt11char_traitsIcESaIcEEEE4NodeC2ERKiRKS5_
FNDA:2,_ZN10LinkedListIiiE4NodeC2ERKiS3_
FNDA:2,_ZN10LinkedListImNSt7__cxx1112basic_stringIcSt11char_traitsIcESaIcEEEE4NodeC2ERKmRKS5_
FNDA:2,_ZN9HashTableINSt7__cxx1112basic_stringIcSt11char_traitsIcESaIcEEEiE6removeERKS5_
FNDA:1442917500,_ZN9HashTableIiiE6removeERKi
FNDA:1,_ZNK9HashTableIiNSt7__cxx1112basic_stringIcSt11char_traitsIcESaIcEEEE5printEv
FNDA:1,_ZNK9HashTableINSt7__cxx1112basic_stringIcSt11char_traitsIcESaIcEEEiE8get_sizeEv
FNDA:1,_ZN9HashTableINSt7__cxx1112basic_stringIcSt11char_traitsIcESaIcEEEiE14load_from_fileERKS5_
FNDA:1,_ZNK9HashTableINSt7__cxx1112basic_stringIcSt11char_traitsIcESaIcEEEiE12save_to_fileERKS5_
FNDA:40,_ZN10LinkedListINSt7__cxx1112basic_stringIcSt11char_traitsIcESaIcEEEiEC2Ev
FNDA:6,_ZN10LinkedListIiNSt7__cxx1112basic_stringIcSt11char_traitsIcESaIcEEEEC2Ev
FNDA:3,_ZN10LinkedListIiiEC2Ev
FNDA:10,_ZN10LinkedListImNSt7__cxx1112basic_stringIcSt11char_traitsIcESaIcEEEEC2Ev
FNDA:40,_ZN10LinkedListINSt7__cxx1112basic_stringIcSt11char_traitsIcESaIcEEEiED2Ev
FNDA:6,_ZN10LinkedListIiNSt7__cxx1112basic_stringIcSt11char_traitsIcESaIcEEEED2Ev
FNDA:3,_ZN10LinkedListIiiED2Ev
FNDA:10,_ZN10LinkedListImNSt7__cxx1112basic_stringIcSt11char_traitsIcESaIcEEEED2Ev
FNDA:9,_ZN10LinkedListINSt7__cxx1112basic_stringIcSt11char_traitsIcESaIcEEEiE11insert_listERKS5_RKi
FNDA:6,_ZN10LinkedListIiNSt7__cxx1112basic_stringIcSt11char_traitsIcESaIcEEEE11insert_listERKiRKS5_
FNDA:1196851022,_ZN10LinkedListIiiE11insert_listERKiS2_
FNDA:2,_ZN10LinkedListImNSt7__cxx1112basic_stringIcSt11char_traitsIcESaIcEEEE11insert_listERKmRKS5_
FNDA:4,_ZNK10LinkedListINSt7__cxx1112basic_stringIcSt11char_traitsIcESaIcEEEiE8get_listERKS5_
FNDA:904920772,_ZNK10LinkedListIiiE8get_listERKi
FNDA:2,_ZNK10LinkedListImNSt7__cxx1112basic_stringIcSt11char_traitsIcESaIcEEEE8get_listERKm
FNDA:2,_ZN10LinkedListINSt7__cxx1112basic_stringIcSt11char_traitsIcESaIcEEEiE11remove_listERKS5_
FNDA:1442917500,_ZN10LinkedListIiiE11remove_listERKi
FNDA:6,_ZNK10LinkedListIiNSt7__cxx1112basic_stringIcSt11char_traitsIcESaIcEEEE5printEv
FNDA:11,_ZNK10LinkedListINSt7__cxx1112basic_stringIcSt11char_traitsIcESaIcEEEiE8containsERKS5_
FNDA:3,_ZNK10LinkedListIiNSt7__cxx1112basic_stringIcSt11char_traitsIcESaIcEEEE8containsERKi
FNDA:2,_ZNK10LinkedListIiiE8containsERKi
FNDA:2,_ZNK10LinkedListImNSt7__cxx1112basic_stringIcSt11char_traitsIcESaIcEEEE8containsERKm
FNF:52
FNH:52
DA:18,23688
DA:24,72059
DA:26,72059
DA:27,72059
DA:28,87855
DA:29,15796
DA:30,15796
DA:31,15796
DA:33,72059
DA:35,1196851039
DA:36,1196851039
DA:37,1196851043
DA:38,1196827355
DA:39,1196827351
DA:40,1196827351
DA:42,4
DA:44,23688
DA:45,23688
DA:46,23688
DA:49,904920778
DA:50,904920778
DA:51,904920779
DA:52,904920778
DA:53,904920777
DA:55,1
DA:57,1
DA:60,1442917502
DA:61,1442917502
DA:62,7892
DA:63,7892
DA:64,7892
DA:65,7892
DA:66,7892
DA:69,0
DA:70,0
DA:71,0
DA:74,0
DA:75,0
DA:76,0
DA:77,0
DA:81,6
DA:82,6
DA:83,12
DA:84,6
DA:85,6
DA:87,6
DA:88,6
DA:90,2639768538
DA:91,2639768538
DA:92,2639768539
DA:93,1196835244
DA:94,3
DA:96,1
DA:98,15
DA:101,10
DA:102,10
DA:103,12
DA:104,2
DA:105,2
DA:107,10
DA:146,15
DA:147,15
DA:148,75
DA:149,60
DA:151,15
DA:154,3544689301
DA:155,3544689301
DA:159,79
DA:160,72137
DA:161,79
DA:163,79
DA:164,72137
DA:165,79
DA:167,1196851036
DA:168,1196851036
DA:169,2393702056
DA:170,23685
DA:172,1196851036
DA:173,1196851036
DA:175,904920778
DA:176,904920778
DA:177,904920778
DA:180,1442917502
DA:181,1442917502
DA:182,2885835002
DA:183,7892
DA:185,1442917502
DA:186,1442917502
DA:188,1
DA:189,6
DA:190,5
DA:191,5
DA:193,1
DA:195,1
DA:196,1
DA:199,1
DA:200,1
DA:201,1
DA:202,1
DA:204,3
DA:205,2
DA:207,1
DA:208,1
DA:209,0
DA:211,1
DA:213,1
DA:214,1
DA:215,1
DA:216,11
DA:217,10
DA:218,10
DA:220,1
DA:222,0
DA:224,1
LF:114
LH:105
end_of_record
TN:
SF:/home/Vlad/Documents/VC Code/SecondSemestr/Lab_3/include/list.h
FN:101,110,_ZN16SinglyLinkedListIiE4findERKi
FN:112,119,_ZNK16SinglyLinkedListIiE5printEv
FN:121,123,_ZNK16SinglyLinkedListIiE8get_sizeEv
FN:125,134,_ZN16SinglyLinkedListIiE14load_from_fileERKNSt7__cxx1112basic_stringIcSt11char_traitsIcESaIcEEE
FN:136,148,_ZNK16SinglyLinkedListIiE12save_to_fileERKNSt7__cxx1112basic_stringIcSt11char_traitsIcESaIcEEE
FN:16,16,_ZN16SinglyLinkedListIiE4NodeC2ERKi
FN:23,23,_ZN16SinglyLinkedListIiEC2Ev
FN:25,29,_ZN16SinglyLinkedListIiED2Ev
FN:31,36,_ZN16SinglyLinkedListIiE10push_frontERKi
FN:38,50,_ZN16SinglyLinkedListIiE9push_backERKi
FN:52,58,_ZN16SinglyLinkedListIiE9pop_frontEv
FN:60,74,_ZN16SinglyLinkedListIiE8pop_backEv
FN:76,99,_ZN16SinglyLinkedListIiE6removeERKi
FNDA:18,_ZN16SinglyLinkedListIiE4findERKi
FNDA:1,_ZNK16SinglyLinkedListIiE5printEv
FNDA:18,_ZNK16SinglyLinkedListIiE8get_sizeEv
FNDA:1,_ZN16SinglyLinkedListIiE14load_from_fileERKNSt7__cxx1112basic_stringIcSt11char_traitsIcESaIcEEE
FNDA:1,_ZNK16SinglyLinkedListIiE12save_to_fileERKNSt7__cxx1112basic_stringIcSt11char_traitsIcESaIcEEE
FNDA:22,_ZN16SinglyLinkedListIiE4NodeC2ERKi
FNDA:10,_ZN16SinglyLinkedListIiEC2Ev
FNDA:10,_ZN16SinglyLinkedListIiED2Ev
FNDA:2,_ZN16SinglyLinkedListIiE10push_frontERKi
FNDA:110876520,_ZN16SinglyLinkedListIiE9push_backERKi
FNDA:196201509,_ZN16SinglyLinkedListIiE9pop_frontEv
FNDA:4,_ZN16SinglyLinkedListIiE8pop_backEv
FNDA:4,_ZN16SinglyLinkedListIiE6removeERKi
FNF:13
FNH:13
DA:16,196201512
DA:23,11718771
DA:25,2839784
DA:26,171047704
DA:27,159328933
DA:29,11718771
DA:31,85324992
DA:32,85324992
DA:33,85324992
DA:34,85324992
DA:35,85324992
DA:36,2
DA:38,110876520
DA:39,110876520
DA:40,110876520
DA:41,8502697
DA:43,11
DA:44,3503481763
DA:45,2
DA:47,102373823
DA:49,110876520
DA:50,110876520
DA:52,196201509
DA:53,196201509
DA:54,196201508
DA:55,196201508
DA:56,196201508
DA:57,196201508
DA:58,196201508
DA:60,4
DA:61,4
DA:62,3
DA:63,2
DA:64,2
DA:66,1
DA:67,1
DA:68,0
DA:70,1
DA:71,1
DA:73,3
DA:74,3
DA:76,4
DA:77,4
DA:79,3
DA:80,2
DA:81,2
DA:84,1
DA:85,1
DA:86,0
DA:89,1
DA:90,1
DA:91,1
DA:92,1
DA:93,1
DA:94,1
DA:96,0
DA:101,18
DA:102,18
DA:103,30
DA:104,26
DA:105,14
DA:107,12
DA:109,4
DA:112,1
DA:113,1
DA:114,3
DA:115,2
DA:116,2
DA:118,1
DA:119,1
DA:121,18
DA:122,18
DA:125,1
DA:126,1
DA:127,1
DA:129,3
DA:130,2
DA:132,1
DA:134,1
DA:136,1
DA:137,1
DA:138,1
DA:139,1
DA:140,3
DA:141,2
DA:142,2
DA:144,1
DA:146,0
DA:148,1
LF:89
LH:85
end_of_record
TN:
SF:/home/Vlad/Documents/VC Code/SecondSemestr/Lab_3/include/queue.h
FN:16,16,_ZN5QueueIiE4NodeC2ERKi
FN:24,24,_ZN5QueueIiEC2Ev
FN:26,30,_ZN5QueueIiED2Ev
FN:32,41,_ZN5QueueIiE4pushERKi
FN:43,50,_ZN5QueueIiE3popEv
FN:52,55,_ZNK5QueueIiE11front_valueEv
FN:57,59,_ZNK5QueueIiE8get_sizeEv
FN:61,68,_ZNK5QueueIiE5printEv
FN:70,81,_ZN5QueueIiE14load_from_fileERKNSt7__cxx1112basic_stringIcSt11char_traitsIcESaIcEEE
FN:84,96,_ZNK5QueueIiE12save_to_fileERKNSt7__cxx1112basic_stringIcSt11char_traitsIcESaIcEEE
FNDA:12,_ZN5QueueIiE4NodeC2ERKi
FNDA:8,_ZN5QueueIiEC2Ev
FNDA:8,_ZN5QueueIiED2Ev
FNDA:214000175,_ZN5QueueIiE4pushERKi
FNDA:214000176,_ZN5QueueIiE3popEv
FNDA:6,_ZNK5QueueIiE11front_valueEv
FNDA:5,_ZNK5QueueIiE8get_sizeEv
FNDA:1,_ZNK5QueueIiE5printEv
FNDA:163239,_ZN5QueueIiE14load_from_fileERKNSt7__cxx1112basic_stringIcSt11char_traitsIcESaIcEEE
FNDA:20605,_ZNK5QueueIiE12save_to_fileERKNSt7__cxx1112basic_stringIcSt11char_traitsIcESaIcEEE
FNF:10
FNH:10
DA:16,214000175
DA:24,163309
DA:26,163288
DA:27,129417751
DA:28,129254442
DA:30,163309
DA:32,214000175
DA:33,214000175
DA:34,214000175
DA:35,3327427
DA:37,210672748
DA:38,210672748
DA:40,214000175
DA:41,214000175
DA:43,214000176
DA:44,214000176
DA:45,214000175
DA:46,214000175
DA:47,214000175
DA:48,214000175
DA:49,214000175
DA:50,214000175
DA:52,6
DA:53,6
DA:54,5
DA:57,5
DA:58,5
DA:61,1
DA:62,1
DA:63,3
DA:64,2
DA:65,2
DA:67,1
DA:68,1
DA:70,163239
DA:71,163239
DA:72,163239
DA:74,12400951
DA:75,12237712
DA:77,163239
DA:79,0
DA:81,163239
DA:84,20605
DA:85,20605
DA:86,20605
DA:87,20605
DA:88,5018337
DA:89,4997732
DA:90,4997732
DA:92,20605
DA:94,0
DA:96,20605
LF:52
LH:50
end_of_record
TN:
SF:/home/Vlad/Documents/VC Code/SecondSemestr/Lab_3/include/stack.h
FN:102,114,_ZNK5StackIiE12save_to_fileERKNSt7__cxx1112basic_stringIcSt11char_traitsIcESaIcEEE
FN:16,16,_ZN5StackIiE4NodeC2ERKi
FN:24,24,_ZN5StackIiEC2Em
FN:26,30,_ZN5StackIiED2Ev
FN:32,41,_ZN5StackIiE4pushERKi
FN:43,48,_ZNK5StackIiE4peekEv
FN:50,56,_ZN5StackIiE3popEv
FN:63,65,_ZNK5StackIiE8get_sizeEv
FN:67,74,_ZNK5StackIiE5printEv
FN:77,99,_ZN5StackIiE14load_from_fileERKNSt7__cxx1112basic_stringIcSt11char_traitsIcESaIcEEE
FNDA:1,_ZNK5StackIiE12save_to_fileERKNSt7__cxx1112basic_stringIcSt11char_traitsIcESaIcEEE
FNDA:17,_ZN5StackIiE4NodeC2ERKi
FNDA:11,_ZN5StackIiEC2Em
FNDA:11,_ZN5StackIiED2Ev
FNDA:169319678,_ZN5StackIiE4pushERKi
FNDA:1473505039,_ZNK5StackIiE4peekEv
FNDA:169319678,_ZN5StackIiE3popEv
FNDA:8,_ZNK5StackIiE8get_sizeEv
FNDA:1,_ZNK5StackIiE5printEv
FNDA:1,_ZN5StackIiE14load_from_fileERKNSt7__cxx1112basic_stringIcSt11char_traitsIcESaIcEEE
FNF:10
FNH:10
DA:16,169319677
DA:24,6333217
DA:26,41
DA:27,91173190
DA:28,84839973
DA:30,6333217
DA:32,169319678
DA:33,169319678
DA:34,1
DA:35,1
DA:37,169319677
DA:38,169319677
DA:39,169319677
DA:40,169319677
DA:43,1473505039
DA:44,1473505039
DA:45,1
DA:47,1473505038
DA:50,169319678
DA:51,169319678
DA:52,169319677
DA:53,169319677
DA:54,169319677
DA:55,169319677
DA:56,169319677
DA:63,8
DA:64,8
DA:67,1
DA:68,1
DA:69,3
DA:70,2
DA:71,2
DA:73,1
DA:74,1
DA:77,1
DA:78,1
DA:79,1
DA:80,1
DA:84,4
DA:85,3
DA:88,1
DA:92,4
DA:93,3
DA:94,3
DA:96,1
DA:97,0
DA:99,1
DA:102,1
DA:103,1
DA:104,1
DA:105,1
DA:106,3
DA:107,2
DA:108,2
DA:110,1
DA:112,0
DA:114,1
LF:57
LH:55
end_of_record
TN:
SF:/home/Vlad/Documents/VC Code/SecondSemestr/Lab_3/include/twolist.h
FN:102,111,_ZN16DoublyLinkedListIiE4findERKi
FN:113,120,_ZNK16DoublyLinkedListIiE5printEv
FN:122,124,_ZNK16DoublyLinkedListIiE8get_sizeEv
FN:126,135,_ZN16DoublyLinkedListIiE14load_from_fileERKNSt7__cxx1112basic_stringIcSt11char_traitsIcESaIcEEE
FN:137,149,_ZNK16DoublyLinkedListIiE12save_to_fileERKNSt7__cxx1112basic_stringIcSt11char_traitsIcESaIcEEE
FN:17,17,_ZN16DoublyLinkedListIiE4NodeC2ERKi
FN:25,25,_ZN16DoublyLinkedListIiEC2Ev
FN:27,31,_ZN16DoublyLinkedListIiED2Ev
FN:33,43,_ZN16DoublyLinkedListIiE10push_frontERKi
FN:45,55,_ZN16DoublyLinkedListIiE9push_backERKi
FN:57,65,_ZN16DoublyLinkedListIiE9pop_frontEv
FN:67,75,_ZN16DoublyLinkedListIiE8pop_backEv
FN:77,100,_ZN16DoublyLinkedListIiE6removeERKi
FNDA:18,_ZN16DoublyLinkedListIiE4findERKi
FNDA:1,_ZNK16DoublyLinkedListIiE5printEv
FNDA:7,_ZNK16DoublyLinkedListIiE8get_sizeEv
FNDA:1,_ZN16DoublyLinkedListIiE14load_from_fileERKNSt7__cxx1112basic_stringIcSt11char_traitsIcESaIcEEE
FNDA:1,_ZNK16DoublyLinkedListIiE12save_to_fileERKNSt7__cxx1112basic_stringIcSt11char_traitsIcESaIcEEE
FNDA:28,_ZN16DoublyLinkedListIiE4NodeC2ERKi
FNDA:10,_ZN16DoublyLinkedListIiEC2Ev
FNDA:10,_ZN16DoublyLinkedListIiED2Ev
FNDA:168004603,_ZN16DoublyLinkedListIiE10push_frontERKi
FNDA:206247065,_ZN16DoublyLinkedListIiE9push_backERKi
FNDA:289857446,_ZN16DoublyLinkedListIiE9pop_frontEv
FNDA:84394221,_ZN16DoublyLinkedListIiE8pop_backEv
FNDA:1,_ZN16DoublyLinkedListIiE6removeERKi
FNF:13
FNH:13
DA:17,374251668
DA:25,15445743
DA:27,6314182
DA:28,221160488
DA:29,205714745
DA:31,15445743
DA:33,168004603
DA:34,168004603
DA:35,168004603
DA:36,6303644
DA:38,161700959
DA:39,161700959
DA:40,161700959
DA:42,168004603
DA:43,168004603
DA:45,206247065
DA:46,206247065
DA:47,206247065
DA:48,9142098
DA:50,197104967
DA:51,197104967
DA:52,197104967
DA:54,206247065
DA:55,206247065
DA:57,289857446
DA:58,289857446
DA:59,289857446
DA:60,289857446
DA:61,289857446
DA:62,12284928
DA:63,289857446
DA:64,289857446
DA:65,289857446
DA:67,84394221
DA:68,84394221
DA:69,84394221
DA:70,84394221
DA:71,84394221
DA:72,3160814
DA:73,84394221
DA:74,84394221
DA:75,84394221
DA:77,1
DA:78,1
DA:79,2
DA:80,2
DA:81,1
DA:82,0
DA:83,0
DA:84,1
DA:85,0
DA:86,0
DA:88,1
DA:89,1
DA:90,1
DA:91,1
DA:92,1
DA:94,1
DA:96,1
DA:99,0
DA:102,37765408
DA:103,37765408
DA:104,1288776879
DA:105,1288776875
DA:106,14
DA:108,1251011471
DA:110,4
DA:113,1
DA:114,1
DA:115,5
DA:116,4
DA:117,4
DA:119,1
DA:120,1
DA:122,7
DA:123,7
DA:126,1
DA:127,1
DA:128,1
DA:130,4
DA:131,3
DA:133,1
DA:135,1
DA:137,1
DA:138,1
DA:139,1
DA:140,1
DA:141,4
DA:142,3
DA:143,3
DA:145,1
DA:147,0
DA:149,1
LF:93
LH:87
end_of_record
